GAS LISTING /tmp/ccIShVPd.s 			page 1


   1              		.file	"main.cpp"
   2              		.option pic
   3              		.option norelax
   4              		.text
   5              	.Ltext0:
   6              		.section	.rodata.str1.8,"aMS",@progbits,1
   7              		.align	3
   8              	.LC0:
   9 0000 54687265 		.string	"ThreadA created\n"
   9      61644120 
   9      63726561 
   9      7465640A 
   9      00
  10 0011 00000000 		.align	3
  10      000000
  11              	.LC1:
  12 0018 54687265 		.string	"ThreadB created\n"
  12      61644220 
  12      63726561 
  12      7465640A 
  12      00
  13 0029 00000000 		.align	3
  13      000000
  14              	.LC2:
  15 0030 54687265 		.string	"ThreadC created\n"
  15      61644320 
  15      63726561 
  15      7465640A 
  15      00
  16 0041 00000000 		.align	3
  16      000000
  17              	.LC3:
  18 0048 54687265 		.string	"ThreadD created\n"
  18      61644420 
  18      63726561 
  18      7465640A 
  18      00
  19 0059 00000000 		.align	3
  19      000000
  20              	.LC4:
  21 0060 46696E69 		.string	"Finished\n"
  21      73686564 
  21      0A00
  22              		.text
  23              		.align	2
  24              		.globl	main
  26              	main:
  27              	.LFB37:
  28              		.file 1 "src/main.cpp"
   1:src/main.cpp  **** #include "../h/tcb.hpp"
   2:src/main.cpp  **** #include "../h/workers.hpp"
   3:src/main.cpp  **** #include "../h/print.hpp"
   4:src/main.cpp  **** #include "../h/riscv.hpp"
   5:src/main.cpp  **** 
   6:src/main.cpp  **** int main(){
  29              		.loc 1 6 11
  30              		.cfi_startproc
GAS LISTING /tmp/ccIShVPd.s 			page 2


  31 0000 130101FB 		addi	sp,sp,-80
  32              		.cfi_def_cfa_offset 80
  33 0004 23341104 		sd	ra,72(sp)
  34 0008 23308104 		sd	s0,64(sp)
  35 000c 233C9102 		sd	s1,56(sp)
  36 0010 23382103 		sd	s2,48(sp)
  37              		.cfi_offset 1, -8
  38              		.cfi_offset 8, -16
  39              		.cfi_offset 9, -24
  40              		.cfi_offset 18, -32
  41 0014 13040105 		addi	s0,sp,80
  42              		.cfi_def_cfa 8, 0
   7:src/main.cpp  **** 
   8:src/main.cpp  ****     TCB *threads[5];
  43              		.loc 1 8 5
   9:src/main.cpp  **** 
  10:src/main.cpp  ****     threads[0] = TCB::createThread(nullptr);
  44              		.loc 1 10 5
  45              		.loc 1 10 35 is_stmt 0
  46 0018 13050000 		li	a0,0
  47 001c 97000000 		call	_ZN3TCB12createThreadEPFvvE@plt
  47      E7800000 
  48              	.LVL0:
  49              		.loc 1 10 16
  50 0024 233CA4FA 		sd	a0,-72(s0)
  11:src/main.cpp  ****     TCB::running = threads[0];
  51              		.loc 1 11 5 is_stmt 1
  52              		.loc 1 11 18 is_stmt 0
  53 0028 97070000 		la	a5,_ZN3TCB7runningE
  53      83B70700 
  54 0030 23B0A700 		sd	a0,0(a5)
  12:src/main.cpp  **** 
  13:src/main.cpp  ****     threads[1] = TCB::createThread(workerBodyA);
  55              		.loc 1 13 5 is_stmt 1
  56              		.loc 1 13 35 is_stmt 0
  57 0034 17050000 		la	a0,_Z11workerBodyAv
  57      03350500 
  58 003c 97000000 		call	_ZN3TCB12createThreadEPFvvE@plt
  58      E7800000 
  59              	.LVL1:
  60              		.loc 1 13 16
  61 0044 2330A4FC 		sd	a0,-64(s0)
  14:src/main.cpp  ****     printString("ThreadA created\n");
  62              		.loc 1 14 5 is_stmt 1
  63              		.loc 1 14 16 is_stmt 0
  64 0048 17050000 		lla	a0,.LC0
  64      13050500 
  65 0050 97000000 		call	_Z11printStringPKc@plt
  65      E7800000 
  66              	.LVL2:
  15:src/main.cpp  ****     threads[2] = TCB::createThread(workerBodyB);
  67              		.loc 1 15 5 is_stmt 1
  68              		.loc 1 15 35 is_stmt 0
  69 0058 17050000 		la	a0,_Z11workerBodyBv
  69      03350500 
  70 0060 97000000 		call	_ZN3TCB12createThreadEPFvvE@plt
  70      E7800000 
GAS LISTING /tmp/ccIShVPd.s 			page 3


  71              	.LVL3:
  72              		.loc 1 15 16
  73 0068 2334A4FC 		sd	a0,-56(s0)
  16:src/main.cpp  ****     printString("ThreadB created\n");
  74              		.loc 1 16 5 is_stmt 1
  75              		.loc 1 16 16 is_stmt 0
  76 006c 17050000 		lla	a0,.LC1
  76      13050500 
  77 0074 97000000 		call	_Z11printStringPKc@plt
  77      E7800000 
  78              	.LVL4:
  17:src/main.cpp  ****     threads[3] = TCB::createThread(workerBodyC);
  79              		.loc 1 17 5 is_stmt 1
  80              		.loc 1 17 35 is_stmt 0
  81 007c 17050000 		la	a0,_Z11workerBodyCv
  81      03350500 
  82 0084 97000000 		call	_ZN3TCB12createThreadEPFvvE@plt
  82      E7800000 
  83              	.LVL5:
  84              		.loc 1 17 16
  85 008c 2338A4FC 		sd	a0,-48(s0)
  18:src/main.cpp  ****     printString("ThreadC created\n");
  86              		.loc 1 18 5 is_stmt 1
  87              		.loc 1 18 16 is_stmt 0
  88 0090 17050000 		lla	a0,.LC2
  88      13050500 
  89 0098 97000000 		call	_Z11printStringPKc@plt
  89      E7800000 
  90              	.LVL6:
  19:src/main.cpp  ****     threads[4] = TCB::createThread(workerBodyD);
  91              		.loc 1 19 5 is_stmt 1
  92              		.loc 1 19 35 is_stmt 0
  93 00a0 17050000 		la	a0,_Z11workerBodyDv
  93      03350500 
  94 00a8 97000000 		call	_ZN3TCB12createThreadEPFvvE@plt
  94      E7800000 
  95              	.LVL7:
  96              		.loc 1 19 16
  97 00b0 233CA4FC 		sd	a0,-40(s0)
  20:src/main.cpp  ****     printString("ThreadD created\n");
  98              		.loc 1 20 5 is_stmt 1
  99              		.loc 1 20 16 is_stmt 0
 100 00b4 17050000 		lla	a0,.LC3
 100      13050500 
 101 00bc 97000000 		call	_Z11printStringPKc@plt
 101      E7800000 
 102              	.LVL8:
  21:src/main.cpp  **** 
  22:src/main.cpp  ****     Riscv::w_stvec((uint64) &Riscv::supervisorTrap);
 103              		.loc 1 22 5 is_stmt 1
 104              		.loc 1 22 19 is_stmt 0
 105 00c4 97070000 		la	a5,_ZN5Riscv14supervisorTrapEv
 105      83B70700 
 106              	.LVL9:
 107              	.LBB18:
 108              	.LBB19:
 109              		.file 2 "src/../h/riscv.hpp"
GAS LISTING /tmp/ccIShVPd.s 			page 4


   1:src/../h/riscv.hpp **** //
   2:src/../h/riscv.hpp **** // Created by os on 5/22/24.
   3:src/../h/riscv.hpp **** //
   4:src/../h/riscv.hpp **** 
   5:src/../h/riscv.hpp **** #ifndef PROJECT_BASE_RISCV_HPP
   6:src/../h/riscv.hpp **** #define PROJECT_BASE_RISCV_HPP
   7:src/../h/riscv.hpp **** 
   8:src/../h/riscv.hpp **** #include "../lib/hw.h"
   9:src/../h/riscv.hpp **** 
  10:src/../h/riscv.hpp **** class Riscv
  11:src/../h/riscv.hpp **** {
  12:src/../h/riscv.hpp **** public:
  13:src/../h/riscv.hpp **** 
  14:src/../h/riscv.hpp ****     // push registers x3..x31
  15:src/../h/riscv.hpp ****     static void pushRegisters();
  16:src/../h/riscv.hpp **** 
  17:src/../h/riscv.hpp ****     // pop registers x3..x31
  18:src/../h/riscv.hpp ****     static void popRegisters();
  19:src/../h/riscv.hpp **** 
  20:src/../h/riscv.hpp ****     // pop sstatus.spp and sstatus.spie bits (has to be a non inline function)
  21:src/../h/riscv.hpp ****     static void popSppSpie();
  22:src/../h/riscv.hpp **** 
  23:src/../h/riscv.hpp ****     // read register scause
  24:src/../h/riscv.hpp ****     static uint64 r_scause();
  25:src/../h/riscv.hpp **** 
  26:src/../h/riscv.hpp ****     // write register scause
  27:src/../h/riscv.hpp ****     static void w_scause(uint64 scause);
  28:src/../h/riscv.hpp **** 
  29:src/../h/riscv.hpp ****     // read register sepc
  30:src/../h/riscv.hpp ****     static uint64 r_sepc();
  31:src/../h/riscv.hpp **** 
  32:src/../h/riscv.hpp ****     // write register sepc
  33:src/../h/riscv.hpp ****     static void w_sepc(uint64 sepc);
  34:src/../h/riscv.hpp **** 
  35:src/../h/riscv.hpp ****     // read register stvec
  36:src/../h/riscv.hpp ****     static uint64 r_stvec();
  37:src/../h/riscv.hpp **** 
  38:src/../h/riscv.hpp ****     // write register stvec
  39:src/../h/riscv.hpp ****     static void w_stvec(uint64 stvec);
  40:src/../h/riscv.hpp **** 
  41:src/../h/riscv.hpp ****     // read register stval
  42:src/../h/riscv.hpp ****     static uint64 r_stval();
  43:src/../h/riscv.hpp **** 
  44:src/../h/riscv.hpp ****     // write register stval
  45:src/../h/riscv.hpp ****     static void w_stval(uint64 stval);
  46:src/../h/riscv.hpp **** 
  47:src/../h/riscv.hpp ****     enum BitMaskSip
  48:src/../h/riscv.hpp ****     {
  49:src/../h/riscv.hpp ****         SIP_SSIP = (1 << 1),
  50:src/../h/riscv.hpp ****         SIP_STIP = (1 << 5),
  51:src/../h/riscv.hpp ****         SIP_SEIP = (1 << 9),
  52:src/../h/riscv.hpp ****     };
  53:src/../h/riscv.hpp **** 
  54:src/../h/riscv.hpp ****     // mask set register sip
  55:src/../h/riscv.hpp ****     static void ms_sip(uint64 mask);
  56:src/../h/riscv.hpp **** 
  57:src/../h/riscv.hpp ****     // mask clear register sip
GAS LISTING /tmp/ccIShVPd.s 			page 5


  58:src/../h/riscv.hpp ****     static void mc_sip(uint64 mask);
  59:src/../h/riscv.hpp **** 
  60:src/../h/riscv.hpp ****     // read register sip
  61:src/../h/riscv.hpp ****     static uint64 r_sip();
  62:src/../h/riscv.hpp **** 
  63:src/../h/riscv.hpp ****     // write register sip
  64:src/../h/riscv.hpp ****     static void w_sip(uint64 sip);
  65:src/../h/riscv.hpp **** 
  66:src/../h/riscv.hpp ****     enum BitMaskSstatus
  67:src/../h/riscv.hpp ****     {
  68:src/../h/riscv.hpp ****         SSTATUS_SIE = (1 << 1),
  69:src/../h/riscv.hpp ****         SSTATUS_SPIE = (1 << 5),
  70:src/../h/riscv.hpp ****         SSTATUS_SPP = (1 << 8),
  71:src/../h/riscv.hpp ****     };
  72:src/../h/riscv.hpp **** 
  73:src/../h/riscv.hpp ****     // mask set register sstatus
  74:src/../h/riscv.hpp ****     static void ms_sstatus(uint64 mask);
  75:src/../h/riscv.hpp **** 
  76:src/../h/riscv.hpp ****     // mask clear register sstatus
  77:src/../h/riscv.hpp ****     static void mc_sstatus(uint64 mask);
  78:src/../h/riscv.hpp **** 
  79:src/../h/riscv.hpp ****     // read register sstatus
  80:src/../h/riscv.hpp ****     static uint64 r_sstatus();
  81:src/../h/riscv.hpp **** 
  82:src/../h/riscv.hpp ****     // write register sstatus
  83:src/../h/riscv.hpp ****     static void w_sstatus(uint64 sstatus);
  84:src/../h/riscv.hpp **** 
  85:src/../h/riscv.hpp ****     // supervisor trap
  86:src/../h/riscv.hpp ****     static void supervisorTrap();
  87:src/../h/riscv.hpp **** 
  88:src/../h/riscv.hpp ****     //stvec Vector "table"
  89:src/../h/riscv.hpp ****     static void stvecVectorTable();
  90:src/../h/riscv.hpp **** 
  91:src/../h/riscv.hpp ****     //read a0 register
  92:src/../h/riscv.hpp ****     static uint64 r_a0();
  93:src/../h/riscv.hpp **** 
  94:src/../h/riscv.hpp ****     //write to a0 register
  95:src/../h/riscv.hpp ****     static void w_a0(uint64 writeValue);
  96:src/../h/riscv.hpp **** 
  97:src/../h/riscv.hpp **** private:
  98:src/../h/riscv.hpp **** 
  99:src/../h/riscv.hpp ****     // supervisor trap handler
 100:src/../h/riscv.hpp ****     static void handleSupervisorTrap();
 101:src/../h/riscv.hpp **** 
 102:src/../h/riscv.hpp ****     static void handleTimerInterrupt();
 103:src/../h/riscv.hpp **** 
 104:src/../h/riscv.hpp ****     static void handleConsoleInterrupt();
 105:src/../h/riscv.hpp **** };
 106:src/../h/riscv.hpp **** 
 107:src/../h/riscv.hpp **** 
 108:src/../h/riscv.hpp **** inline uint64 Riscv::r_scause()
 109:src/../h/riscv.hpp **** {
 110:src/../h/riscv.hpp ****     uint64 volatile scause;
 111:src/../h/riscv.hpp ****     __asm__ volatile ("csrr %[scause], scause" : [scause] "=r"(scause));
 112:src/../h/riscv.hpp ****     return scause;
 113:src/../h/riscv.hpp **** }
 114:src/../h/riscv.hpp **** 
GAS LISTING /tmp/ccIShVPd.s 			page 6


 115:src/../h/riscv.hpp **** inline void Riscv::w_scause(uint64 scause)
 116:src/../h/riscv.hpp **** {
 117:src/../h/riscv.hpp ****     __asm__ volatile ("csrw scause, %[scause]" : : [scause] "r"(scause));
 118:src/../h/riscv.hpp **** }
 119:src/../h/riscv.hpp **** 
 120:src/../h/riscv.hpp **** inline uint64 Riscv::r_sepc()
 121:src/../h/riscv.hpp **** {
 122:src/../h/riscv.hpp ****     uint64 volatile sepc;
 123:src/../h/riscv.hpp ****     __asm__ volatile ("csrr %[sepc], sepc" : [sepc] "=r"(sepc));
 124:src/../h/riscv.hpp ****     return sepc;
 125:src/../h/riscv.hpp **** }
 126:src/../h/riscv.hpp **** 
 127:src/../h/riscv.hpp **** inline void Riscv::w_sepc(uint64 sepc)
 128:src/../h/riscv.hpp **** {
 129:src/../h/riscv.hpp ****     __asm__ volatile ("csrw sepc, %[sepc]" : : [sepc] "r"(sepc));
 130:src/../h/riscv.hpp **** }
 131:src/../h/riscv.hpp **** 
 132:src/../h/riscv.hpp **** inline uint64 Riscv::r_stvec()
 133:src/../h/riscv.hpp **** {
 134:src/../h/riscv.hpp ****     uint64 volatile stvec;
 135:src/../h/riscv.hpp ****     __asm__ volatile ("csrr %[stvec], stvec" : [stvec] "=r"(stvec));
 136:src/../h/riscv.hpp ****     return stvec;
 137:src/../h/riscv.hpp **** }
 138:src/../h/riscv.hpp **** 
 139:src/../h/riscv.hpp **** inline void Riscv::w_stvec(uint64 stvec)
 140:src/../h/riscv.hpp **** {
 141:src/../h/riscv.hpp ****     __asm__ volatile ("csrw stvec, %[stvec]" : : [stvec] "r"(stvec));
 110              		.loc 2 141 5 is_stmt 1
 111              		.loc 2 141 69 is_stmt 0
 112              	#APP
 113              	# 141 "src/../h/riscv.hpp" 1
 142              	}
 114              		csrw stvec, a5
 115              	# 0 "" 2
 116              	.LVL10:
 117              	#NO_APP
 118              	.LBE19:
 119              	.LBE18:
  23:src/main.cpp  ****     Riscv::ms_sstatus(Riscv::SSTATUS_SIE);
 120              		.loc 1 23 5 is_stmt 1
 121              	.LBB20:
 122              	.LBB21:
 143:src/../h/riscv.hpp **** 
 144:src/../h/riscv.hpp **** inline uint64 Riscv::r_stval()
 145:src/../h/riscv.hpp **** {
 146:src/../h/riscv.hpp ****     uint64 volatile stval;
 147:src/../h/riscv.hpp ****     __asm__ volatile ("csrr %[stval], stval" : [stval] "=r"(stval));
 148:src/../h/riscv.hpp ****     return stval;
 149:src/../h/riscv.hpp **** }
 150:src/../h/riscv.hpp **** 
 151:src/../h/riscv.hpp **** inline void Riscv::w_stval(uint64 stval)
 152:src/../h/riscv.hpp **** {
 153:src/../h/riscv.hpp ****     __asm__ volatile ("csrw stval, %[stval]" : : [stval] "r"(stval));
 154:src/../h/riscv.hpp **** }
 155:src/../h/riscv.hpp **** 
 156:src/../h/riscv.hpp **** inline void Riscv::ms_sip(uint64 mask)
 157:src/../h/riscv.hpp **** {
GAS LISTING /tmp/ccIShVPd.s 			page 7


 158:src/../h/riscv.hpp ****     __asm__ volatile ("csrs sip, %[mask]" : : [mask] "r"(mask));
 159:src/../h/riscv.hpp **** }
 160:src/../h/riscv.hpp **** 
 161:src/../h/riscv.hpp **** inline void Riscv::mc_sip(uint64 mask)
 162:src/../h/riscv.hpp **** {
 163:src/../h/riscv.hpp ****     __asm__ volatile ("csrc sip, %[mask]" : : [mask] "r"(mask));
 164:src/../h/riscv.hpp **** }
 165:src/../h/riscv.hpp **** 
 166:src/../h/riscv.hpp **** inline uint64 Riscv::r_sip()
 167:src/../h/riscv.hpp **** {
 168:src/../h/riscv.hpp ****     uint64 volatile sip;
 169:src/../h/riscv.hpp ****     __asm__ volatile ("csrr %[sip], sip" : [sip] "=r"(sip));
 170:src/../h/riscv.hpp ****     return sip;
 171:src/../h/riscv.hpp **** }
 172:src/../h/riscv.hpp **** 
 173:src/../h/riscv.hpp **** inline void Riscv::w_sip(uint64 sip)
 174:src/../h/riscv.hpp **** {
 175:src/../h/riscv.hpp ****     __asm__ volatile ("csrw sip, %[sip]" : : [sip] "r"(sip));
 176:src/../h/riscv.hpp **** }
 177:src/../h/riscv.hpp **** 
 178:src/../h/riscv.hpp **** inline void Riscv::ms_sstatus(uint64 mask)
 179:src/../h/riscv.hpp **** {
 180:src/../h/riscv.hpp ****     __asm__ volatile ("csrs sstatus, %[mask]" : : [mask] "r"(mask));
 123              		.loc 2 180 5
 124              		.loc 2 180 68 is_stmt 0
 125 00d0 93072000 		li	a5,2
 126              	#APP
 127              	# 180 "src/../h/riscv.hpp" 1
 181              	}
 128              		csrs sstatus, a5
 129              	# 0 "" 2
 130              		.loc 2 181 1
 131              	#NO_APP
 132 00d8 6F00C000 		j	.L4
 133              	.LVL11:
 134              	.L2:
 135              	.LBE21:
 136              	.LBE20:
  24:src/main.cpp  **** 
  25:src/main.cpp  **** 
  26:src/main.cpp  ****     while (!(threads[1]->isFinished() && threads[2]->isFinished() && threads[3]->isFinished() && th
  27:src/main.cpp  ****         TCB::yield();
 137              		.loc 1 27 9 is_stmt 1 discriminator 7
 138              		.loc 1 27 19 is_stmt 0 discriminator 7
 139 00dc 97000000 		call	_ZN3TCB5yieldEv@plt
 139      E7800000 
 140              	.LVL12:
 141              	.L4:
  26:src/main.cpp  ****         TCB::yield();
 142              		.loc 1 26 5 is_stmt 1
  26:src/main.cpp  ****         TCB::yield();
 143              		.loc 1 26 12
  26:src/main.cpp  ****         TCB::yield();
 144              		.loc 1 26 23 is_stmt 0
 145 00e4 833704FC 		ld	a5,-64(s0)
 146              	.LVL13:
 147              	.LBB22:
GAS LISTING /tmp/ccIShVPd.s 			page 8


 148              	.LBB23:
 149              		.file 3 "src/../h/tcb.hpp"
   1:src/../h/tcb.hpp **** //
   2:src/../h/tcb.hpp **** // Created by os on 5/22/24.
   3:src/../h/tcb.hpp **** //
   4:src/../h/tcb.hpp **** 
   5:src/../h/tcb.hpp **** #ifndef PROJECT_BASE_TCB_HPP
   6:src/../h/tcb.hpp **** #define PROJECT_BASE_TCB_HPP
   7:src/../h/tcb.hpp **** 
   8:src/../h/tcb.hpp **** #include "../lib/hw.h"
   9:src/../h/tcb.hpp **** #include "scheduler.hpp"
  10:src/../h/tcb.hpp **** 
  11:src/../h/tcb.hpp **** 
  12:src/../h/tcb.hpp **** class TCB{
  13:src/../h/tcb.hpp **** public:
  14:src/../h/tcb.hpp ****     ~TCB(){ delete [] stack; }
  15:src/../h/tcb.hpp **** 
  16:src/../h/tcb.hpp ****     bool isFinished() const {return finished; }
 150              		.loc 3 16 30 is_stmt 1
 151              		.loc 3 16 37 is_stmt 0
 152 00e8 83C78702 		lbu	a5,40(a5)
 153              	.LVL14:
 154              	.LBE23:
 155              	.LBE22:
  26:src/main.cpp  ****         TCB::yield();
 156              		.loc 1 26 12
 157 00ec E38807FE 		beqz	a5,.L2
  26:src/main.cpp  ****         TCB::yield();
 158              		.loc 1 26 51 discriminator 2
 159 00f0 833784FC 		ld	a5,-56(s0)
 160              	.LVL15:
 161              	.LBB24:
 162              	.LBB25:
 163              		.loc 3 16 30 is_stmt 1 discriminator 2
 164              		.loc 3 16 37 is_stmt 0 discriminator 2
 165 00f4 83C78702 		lbu	a5,40(a5)
 166              	.LVL16:
 167              	.LBE25:
 168              	.LBE24:
  26:src/main.cpp  ****         TCB::yield();
 169              		.loc 1 26 39 discriminator 2
 170 00f8 E38207FE 		beqz	a5,.L2
  26:src/main.cpp  ****         TCB::yield();
 171              		.loc 1 26 79 discriminator 4
 172 00fc 833704FD 		ld	a5,-48(s0)
 173              	.LVL17:
 174              	.LBB26:
 175              	.LBB27:
 176              		.loc 3 16 30 is_stmt 1 discriminator 4
 177              		.loc 3 16 37 is_stmt 0 discriminator 4
 178 0100 83C78702 		lbu	a5,40(a5)
 179              	.LVL18:
 180              	.LBE27:
 181              	.LBE26:
  26:src/main.cpp  ****         TCB::yield();
 182              		.loc 1 26 67 discriminator 4
 183 0104 E38C07FC 		beqz	a5,.L2
GAS LISTING /tmp/ccIShVPd.s 			page 9


  26:src/main.cpp  ****         TCB::yield();
 184              		.loc 1 26 107 discriminator 6
 185 0108 833784FD 		ld	a5,-40(s0)
 186              	.LVL19:
 187              	.LBB28:
 188              	.LBB29:
 189              		.loc 3 16 30 is_stmt 1 discriminator 6
 190              		.loc 3 16 37 is_stmt 0 discriminator 6
 191 010c 83C78702 		lbu	a5,40(a5)
 192              	.LVL20:
 193              	.LBE29:
 194              	.LBE28:
  26:src/main.cpp  ****         TCB::yield();
 195              		.loc 1 26 12 discriminator 6
 196 0110 E38607FC 		beqz	a5,.L2
 197 0114 930484FB 		addi	s1,s0,-72
 198 0118 6F004001 		j	.L3
 199              	.LVL21:
 200              	.L7:
 201              	.LBB30:
  28:src/main.cpp  ****     }
  29:src/main.cpp  **** 
  30:src/main.cpp  ****     for(auto &thread:threads ){
  31:src/main.cpp  ****         delete thread;
 202              		.loc 1 31 16
 203 011c 13050900 		mv	a0,s2
 204 0120 97000000 		call	_ZdlPv@plt
 204      E7800000 
 205              	.LVL22:
 206              	.L6:
  30:src/main.cpp  ****         delete thread;
 207              		.loc 1 30 5 is_stmt 1 discriminator 3
 208 0128 93848400 		addi	s1,s1,8
 209              	.LVL23:
 210              	.L3:
  30:src/main.cpp  ****         delete thread;
 211              		.loc 1 30 22 discriminator 1
 212 012c 930704FE 		addi	a5,s0,-32
 213 0130 6380F402 		beq	s1,a5,.L5
 214              	.LVL24:
 215              		.loc 1 31 9 discriminator 2
 216              		.loc 1 31 16 is_stmt 0 discriminator 2
 217 0134 03B90400 		ld	s2,0(s1)
 218              		.loc 1 31 22 discriminator 2
 219 0138 E30809FE 		beqz	s2,.L6
 220              	.LVL25:
 221              	.LBB31:
 222              	.LBB32:
  14:src/../h/tcb.hpp **** 
 223              		.loc 3 14 13 is_stmt 1
  14:src/../h/tcb.hpp **** 
 224              		.loc 3 14 23 is_stmt 0
 225 013c 03358900 		ld	a0,8(s2)
  14:src/../h/tcb.hpp **** 
 226              		.loc 3 14 28
 227 0140 E30E05FC 		beqz	a0,.L7
  14:src/../h/tcb.hpp **** 
GAS LISTING /tmp/ccIShVPd.s 			page 10


 228              		.loc 3 14 23
 229 0144 97000000 		call	_ZdaPv@plt
 229      E7800000 
 230              	.LVL26:
 231 014c 6FF01FFD 		j	.L7
 232              	.LVL27:
 233              	.L5:
 234              	.LBE32:
 235              	.LBE31:
 236              	.LBE30:
  32:src/main.cpp  ****     }
  33:src/main.cpp  **** 
  34:src/main.cpp  ****     printString("Finished\n");
 237              		.loc 1 34 5 is_stmt 1
 238              		.loc 1 34 16 is_stmt 0
 239 0150 17050000 		lla	a0,.LC4
 239      13050500 
 240 0158 97000000 		call	_Z11printStringPKc@plt
 240      E7800000 
 241              	.LVL28:
  35:src/main.cpp  **** 
  36:src/main.cpp  ****     return 0;
 242              		.loc 1 36 5 is_stmt 1
  37:src/main.cpp  **** 
  38:src/main.cpp  **** }
 243              		.loc 1 38 1 is_stmt 0
 244 0160 13050000 		li	a0,0
 245 0164 83308104 		ld	ra,72(sp)
 246              		.cfi_restore 1
 247 0168 03340104 		ld	s0,64(sp)
 248              		.cfi_restore 8
 249              		.cfi_def_cfa 2, 80
 250 016c 83348103 		ld	s1,56(sp)
 251              		.cfi_restore 9
 252              	.LVL29:
 253 0170 03390103 		ld	s2,48(sp)
 254              		.cfi_restore 18
 255 0174 13010105 		addi	sp,sp,80
 256              		.cfi_def_cfa_offset 0
 257 0178 67800000 		jr	ra
 258              		.cfi_endproc
 259              	.LFE37:
 261              	.Letext0:
 262              		.file 4 "src/../h/../lib/hw.h"
 263              		.file 5 "src/../h/print.hpp"
GAS LISTING /tmp/ccIShVPd.s 			page 11


DEFINED SYMBOLS
                            *ABS*:0000000000000000 main.cpp
     /tmp/ccIShVPd.s:26     .text:0000000000000000 main
     /tmp/ccIShVPd.s:30     .text:0000000000000000 .L0 
     /tmp/ccIShVPd.s:31     .text:0000000000000000 .L0 
     /tmp/ccIShVPd.s:32     .text:0000000000000004 .L0 
     /tmp/ccIShVPd.s:37     .text:0000000000000014 .L0 
     /tmp/ccIShVPd.s:38     .text:0000000000000014 .L0 
     /tmp/ccIShVPd.s:39     .text:0000000000000014 .L0 
     /tmp/ccIShVPd.s:40     .text:0000000000000014 .L0 
     /tmp/ccIShVPd.s:42     .text:0000000000000018 .L0 
     /tmp/ccIShVPd.s:44     .text:0000000000000018 .L0 
     /tmp/ccIShVPd.s:45     .text:0000000000000018 .L0 
     /tmp/ccIShVPd.s:46     .text:0000000000000018 .L0 
     /tmp/ccIShVPd.s:50     .text:0000000000000024 .L0 
     /tmp/ccIShVPd.s:52     .text:0000000000000028 .L0 
     /tmp/ccIShVPd.s:53     .text:0000000000000028 .L0 
     /tmp/ccIShVPd.s:56     .text:0000000000000034 .L0 
     /tmp/ccIShVPd.s:57     .text:0000000000000034 .L0 
     /tmp/ccIShVPd.s:61     .text:0000000000000044 .L0 
     /tmp/ccIShVPd.s:63     .text:0000000000000048 .L0 
     /tmp/ccIShVPd.s:64     .text:0000000000000048 .L0 
     /tmp/ccIShVPd.s:68     .text:0000000000000058 .L0 
     /tmp/ccIShVPd.s:69     .text:0000000000000058 .L0 
     /tmp/ccIShVPd.s:73     .text:0000000000000068 .L0 
     /tmp/ccIShVPd.s:75     .text:000000000000006c .L0 
     /tmp/ccIShVPd.s:76     .text:000000000000006c .L0 
     /tmp/ccIShVPd.s:80     .text:000000000000007c .L0 
     /tmp/ccIShVPd.s:81     .text:000000000000007c .L0 
     /tmp/ccIShVPd.s:85     .text:000000000000008c .L0 
     /tmp/ccIShVPd.s:87     .text:0000000000000090 .L0 
     /tmp/ccIShVPd.s:88     .text:0000000000000090 .L0 
     /tmp/ccIShVPd.s:92     .text:00000000000000a0 .L0 
     /tmp/ccIShVPd.s:93     .text:00000000000000a0 .L0 
     /tmp/ccIShVPd.s:97     .text:00000000000000b0 .L0 
     /tmp/ccIShVPd.s:99     .text:00000000000000b4 .L0 
     /tmp/ccIShVPd.s:100    .text:00000000000000b4 .L0 
     /tmp/ccIShVPd.s:104    .text:00000000000000c4 .L0 
     /tmp/ccIShVPd.s:105    .text:00000000000000c4 .L0 
     /tmp/ccIShVPd.s:111    .text:00000000000000cc .L0 
  src/../h/riscv.hpp:141    .text:00000000000000cc .L0 
     /tmp/ccIShVPd.s:123    .text:00000000000000d0 .L0 
     /tmp/ccIShVPd.s:124    .text:00000000000000d0 .L0 
     /tmp/ccIShVPd.s:125    .text:00000000000000d0 .L0 
     /tmp/ccIShVPd.s:132    .text:00000000000000d8 .L0 
     /tmp/ccIShVPd.s:138    .text:00000000000000dc .L0 
     /tmp/ccIShVPd.s:139    .text:00000000000000dc .L0 
     /tmp/ccIShVPd.s:143    .text:00000000000000e4 .L0 
     /tmp/ccIShVPd.s:144    .text:00000000000000e4 .L0 
     /tmp/ccIShVPd.s:145    .text:00000000000000e4 .L0 
     /tmp/ccIShVPd.s:151    .text:00000000000000e8 .L0 
     /tmp/ccIShVPd.s:152    .text:00000000000000e8 .L0 
     /tmp/ccIShVPd.s:157    .text:00000000000000ec .L0 
     /tmp/ccIShVPd.s:159    .text:00000000000000f0 .L0 
     /tmp/ccIShVPd.s:164    .text:00000000000000f4 .L0 
     /tmp/ccIShVPd.s:165    .text:00000000000000f4 .L0 
     /tmp/ccIShVPd.s:170    .text:00000000000000f8 .L0 
GAS LISTING /tmp/ccIShVPd.s 			page 12


     /tmp/ccIShVPd.s:172    .text:00000000000000fc .L0 
     /tmp/ccIShVPd.s:177    .text:0000000000000100 .L0 
     /tmp/ccIShVPd.s:178    .text:0000000000000100 .L0 
     /tmp/ccIShVPd.s:183    .text:0000000000000104 .L0 
     /tmp/ccIShVPd.s:185    .text:0000000000000108 .L0 
     /tmp/ccIShVPd.s:190    .text:000000000000010c .L0 
     /tmp/ccIShVPd.s:191    .text:000000000000010c .L0 
     /tmp/ccIShVPd.s:196    .text:0000000000000110 .L0 
     /tmp/ccIShVPd.s:203    .text:000000000000011c .L0 
     /tmp/ccIShVPd.s:208    .text:0000000000000128 .L0 
     /tmp/ccIShVPd.s:212    .text:000000000000012c .L0 
     /tmp/ccIShVPd.s:216    .text:0000000000000134 .L0 
     /tmp/ccIShVPd.s:217    .text:0000000000000134 .L0 
     /tmp/ccIShVPd.s:219    .text:0000000000000138 .L0 
     /tmp/ccIShVPd.s:224    .text:000000000000013c .L0 
     /tmp/ccIShVPd.s:225    .text:000000000000013c .L0 
     /tmp/ccIShVPd.s:227    .text:0000000000000140 .L0 
     /tmp/ccIShVPd.s:229    .text:0000000000000144 .L0 
     /tmp/ccIShVPd.s:238    .text:0000000000000150 .L0 
     /tmp/ccIShVPd.s:239    .text:0000000000000150 .L0 
     /tmp/ccIShVPd.s:243    .text:0000000000000160 .L0 
     /tmp/ccIShVPd.s:244    .text:0000000000000160 .L0 
     /tmp/ccIShVPd.s:246    .text:0000000000000168 .L0 
     /tmp/ccIShVPd.s:248    .text:000000000000016c .L0 
     /tmp/ccIShVPd.s:249    .text:000000000000016c .L0 
     /tmp/ccIShVPd.s:251    .text:0000000000000170 .L0 
     /tmp/ccIShVPd.s:254    .text:0000000000000174 .L0 
     /tmp/ccIShVPd.s:256    .text:0000000000000178 .L0 
     /tmp/ccIShVPd.s:258    .text:000000000000017c .L0 
     /tmp/ccIShVPd.s:264    .text:000000000000017c .L0 
     /tmp/ccIShVPd.s:53     .text:0000000000000028 .L0 
     /tmp/ccIShVPd.s:57     .text:0000000000000034 .L0 
     /tmp/ccIShVPd.s:8      .rodata.str1.8:0000000000000000 .LC0
     /tmp/ccIShVPd.s:64     .text:0000000000000048 .L0 
     /tmp/ccIShVPd.s:69     .text:0000000000000058 .L0 
     /tmp/ccIShVPd.s:11     .rodata.str1.8:0000000000000018 .LC1
     /tmp/ccIShVPd.s:76     .text:000000000000006c .L0 
     /tmp/ccIShVPd.s:81     .text:000000000000007c .L0 
     /tmp/ccIShVPd.s:14     .rodata.str1.8:0000000000000030 .LC2
     /tmp/ccIShVPd.s:88     .text:0000000000000090 .L0 
     /tmp/ccIShVPd.s:93     .text:00000000000000a0 .L0 
     /tmp/ccIShVPd.s:17     .rodata.str1.8:0000000000000048 .LC3
     /tmp/ccIShVPd.s:100    .text:00000000000000b4 .L0 
     /tmp/ccIShVPd.s:105    .text:00000000000000c4 .L0 
     /tmp/ccIShVPd.s:20     .rodata.str1.8:0000000000000060 .LC4
     /tmp/ccIShVPd.s:239    .text:0000000000000150 .L0 
     /tmp/ccIShVPd.s:141    .text:00000000000000e4 .L4
     /tmp/ccIShVPd.s:134    .text:00000000000000dc .L2
     /tmp/ccIShVPd.s:210    .text:000000000000012c .L3
     /tmp/ccIShVPd.s:233    .text:0000000000000150 .L5
     /tmp/ccIShVPd.s:206    .text:0000000000000128 .L6
     /tmp/ccIShVPd.s:200    .text:000000000000011c .L7
     /tmp/ccIShVPd.s:1190   .debug_abbrev:0000000000000000 .Ldebug_abbrev0
     /tmp/ccIShVPd.s:2220   .debug_str:0000000000000207 .LASF110
     /tmp/ccIShVPd.s:2264   .debug_str:0000000000000416 .LASF111
     /tmp/ccIShVPd.s:2224   .debug_str:00000000000002e4 .LASF112
     /tmp/ccIShVPd.s:5      .text:0000000000000000 .Ltext0
GAS LISTING /tmp/ccIShVPd.s 			page 13


     /tmp/ccIShVPd.s:261    .text:000000000000017c .Letext0
     /tmp/ccIShVPd.s:2152   .debug_line:0000000000000000 .Ldebug_line0
     /tmp/ccIShVPd.s:2298   .debug_str:000000000000050b .LASF0
     /tmp/ccIShVPd.s:2310   .debug_str:000000000000053e .LASF1
     /tmp/ccIShVPd.s:2282   .debug_str:00000000000004a1 .LASF2
     /tmp/ccIShVPd.s:2250   .debug_str:00000000000003ce .LASF4
     /tmp/ccIShVPd.s:2350   .debug_str:000000000000066e .LASF3
     /tmp/ccIShVPd.s:2178   .debug_str:00000000000000b1 .LASF5
     /tmp/ccIShVPd.s:2314   .debug_str:0000000000000566 .LASF6
     /tmp/ccIShVPd.s:2296   .debug_str:00000000000004f8 .LASF7
     /tmp/ccIShVPd.s:2380   .debug_str:0000000000000763 .LASF8
     /tmp/ccIShVPd.s:2236   .debug_str:0000000000000342 .LASF9
     /tmp/ccIShVPd.s:2328   .debug_str:00000000000005d9 .LASF10
     /tmp/ccIShVPd.s:2376   .debug_str:0000000000000736 .LASF11
     /tmp/ccIShVPd.s:2182   .debug_str:00000000000000c4 .LASF12
     /tmp/ccIShVPd.s:2158   .debug_str:0000000000000022 .LASF13
     /tmp/ccIShVPd.s:2190   .debug_str:000000000000010e .LASF14
     /tmp/ccIShVPd.s:2342   .debug_str:0000000000000633 .LASF15
     /tmp/ccIShVPd.s:2196   .debug_str:000000000000013b .LASF16
     /tmp/ccIShVPd.s:2164   .debug_str:0000000000000047 .LASF113
     /tmp/ccIShVPd.s:2208   .debug_str:00000000000001ba .LASF17
     /tmp/ccIShVPd.s:2336   .debug_str:0000000000000617 .LASF19
     /tmp/ccIShVPd.s:2316   .debug_str:0000000000000579 .LASF21
     /tmp/ccIShVPd.s:2234   .debug_str:000000000000032b .LASF23
     /tmp/ccIShVPd.s:2284   .debug_str:00000000000004af .LASF18
     /tmp/ccIShVPd.s:2246   .debug_str:000000000000038f .LASF20
     /tmp/ccIShVPd.s:2274   .debug_str:000000000000046c .LASF22
     /tmp/ccIShVPd.s:2176   .debug_str:0000000000000098 .LASF24
     /tmp/ccIShVPd.s:2262   .debug_str:0000000000000409 .LASF25
     /tmp/ccIShVPd.s:2272   .debug_str:0000000000000450 .LASF26
     /tmp/ccIShVPd.s:2338   .debug_str:0000000000000623 .LASF114
     /tmp/ccIShVPd.s:2344   .debug_str:0000000000000649 .LASF43
     /tmp/ccIShVPd.s:2290   .debug_str:00000000000004d1 .LASF45
     /tmp/ccIShVPd.s:2214   .debug_str:00000000000001e3 .LASF115
     /tmp/ccIShVPd.s:2360   .debug_str:00000000000006bb .LASF116
     /tmp/ccIShVPd.s:2256   .debug_str:00000000000003f1 .LASF27
     /tmp/ccIShVPd.s:2304   .debug_str:0000000000000528 .LASF28
     /tmp/ccIShVPd.s:2260   .debug_str:0000000000000401 .LASF29
     /tmp/ccIShVPd.s:2306   .debug_str:000000000000052e .LASF30
     /tmp/ccIShVPd.s:2254   .debug_str:00000000000003e8 .LASF31
     /tmp/ccIShVPd.s:2278   .debug_str:000000000000048c .LASF32
     /tmp/ccIShVPd.s:2242   .debug_str:000000000000036b .LASF34
     /tmp/ccIShVPd.s:2384   .debug_str:0000000000000788 .LASF117
     /tmp/ccIShVPd.s:2248   .debug_str:00000000000003a6 .LASF118
     /tmp/ccIShVPd.s:2302   .debug_str:000000000000051f .LASF33
     /tmp/ccIShVPd.s:2276   .debug_str:0000000000000479 .LASF35
     /tmp/ccIShVPd.s:2352   .debug_str:0000000000000680 .LASF119
     /tmp/ccIShVPd.s:2268   .debug_str:000000000000042d .LASF36
     /tmp/ccIShVPd.s:2244   .debug_str:0000000000000384 .LASF37
     /tmp/ccIShVPd.s:2222   .debug_str:00000000000002df .LASF38
     /tmp/ccIShVPd.s:2308   .debug_str:0000000000000538 .LASF39
     /tmp/ccIShVPd.s:2200   .debug_str:0000000000000165 .LASF120
     /tmp/ccIShVPd.s:2194   .debug_str:000000000000012f .LASF40
     /tmp/ccIShVPd.s:2388   .debug_str:00000000000007a2 .LASF41
     /tmp/ccIShVPd.s:2180   .debug_str:00000000000000b8 .LASF42
     /tmp/ccIShVPd.s:2174   .debug_str:000000000000008a .LASF44
     /tmp/ccIShVPd.s:2212   .debug_str:00000000000001c8 .LASF46
GAS LISTING /tmp/ccIShVPd.s 			page 14


     /tmp/ccIShVPd.s:2366   .debug_str:00000000000006f8 .LASF47
     /tmp/ccIShVPd.s:2156   .debug_str:0000000000000008 .LASF48
     /tmp/ccIShVPd.s:2340   .debug_str:0000000000000628 .LASF49
     /tmp/ccIShVPd.s:2394   .debug_str:00000000000007c7 .LASF50
     /tmp/ccIShVPd.s:2160   .debug_str:0000000000000032 .LASF51
     /tmp/ccIShVPd.s:2364   .debug_str:00000000000006e3 .LASF53
     /tmp/ccIShVPd.s:2210   .debug_str:00000000000001bf .LASF55
     /tmp/ccIShVPd.s:2192   .debug_str:000000000000011a .LASF57
     /tmp/ccIShVPd.s:2354   .debug_str:0000000000000691 .LASF52
     /tmp/ccIShVPd.s:2334   .debug_str:0000000000000604 .LASF54
     /tmp/ccIShVPd.s:2374   .debug_str:000000000000072f .LASF56
     /tmp/ccIShVPd.s:2368   .debug_str:0000000000000705 .LASF58
     /tmp/ccIShVPd.s:2228   .debug_str:0000000000000315 .LASF59
     /tmp/ccIShVPd.s:2198   .debug_str:0000000000000151 .LASF60
     /tmp/ccIShVPd.s:2154   .debug_str:0000000000000000 .LASF61
     /tmp/ccIShVPd.s:2356   .debug_str:0000000000000698 .LASF62
     /tmp/ccIShVPd.s:2216   .debug_str:00000000000001eb .LASF63
     /tmp/ccIShVPd.s:2184   .debug_str:00000000000000d4 .LASF64
     /tmp/ccIShVPd.s:2398   .debug_str:00000000000007ea .LASF65
     /tmp/ccIShVPd.s:2218   .debug_str:00000000000001f3 .LASF66
     /tmp/ccIShVPd.s:2300   .debug_str:0000000000000518 .LASF67
     /tmp/ccIShVPd.s:2390   .debug_str:00000000000007af .LASF68
     /tmp/ccIShVPd.s:2172   .debug_str:0000000000000083 .LASF69
     /tmp/ccIShVPd.s:2226   .debug_str:0000000000000302 .LASF70
     /tmp/ccIShVPd.s:2232   .debug_str:0000000000000325 .LASF71
     /tmp/ccIShVPd.s:2372   .debug_str:000000000000071d .LASF72
     /tmp/ccIShVPd.s:2170   .debug_str:000000000000007d .LASF73
     /tmp/ccIShVPd.s:2402   .debug_str:00000000000007f7 .LASF74
     /tmp/ccIShVPd.s:2396   .debug_str:00000000000007df .LASF75
     /tmp/ccIShVPd.s:2346   .debug_str:000000000000064f .LASF76
     /tmp/ccIShVPd.s:2258   .debug_str:00000000000003f6 .LASF77
     /tmp/ccIShVPd.s:2270   .debug_str:0000000000000438 .LASF78
     /tmp/ccIShVPd.s:2188   .debug_str:0000000000000104 .LASF79
     /tmp/ccIShVPd.s:2326   .debug_str:00000000000005c3 .LASF80
     /tmp/ccIShVPd.s:2288   .debug_str:00000000000004c7 .LASF81
     /tmp/ccIShVPd.s:2240   .debug_str:0000000000000355 .LASF82
     /tmp/ccIShVPd.s:2358   .debug_str:00000000000006ac .LASF83
     /tmp/ccIShVPd.s:2186   .debug_str:00000000000000e8 .LASF84
     /tmp/ccIShVPd.s:2206   .debug_str:00000000000001a9 .LASF85
     /tmp/ccIShVPd.s:2378   .debug_str:0000000000000745 .LASF86
     /tmp/ccIShVPd.s:2370   .debug_str:0000000000000718 .LASF87
     /tmp/ccIShVPd.s:2320   .debug_str:000000000000058b .LASF88
     /tmp/ccIShVPd.s:2238   .debug_str:0000000000000350 .LASF89
     /tmp/ccIShVPd.s:2292   .debug_str:00000000000004e1 .LASF90
     /tmp/ccIShVPd.s:2382   .debug_str:0000000000000773 .LASF91
     /tmp/ccIShVPd.s:2202   .debug_str:0000000000000174 .LASF92
     /tmp/ccIShVPd.s:2312   .debug_str:0000000000000551 .LASF93
     /tmp/ccIShVPd.s:2322   .debug_str:000000000000059c .LASF94
     /tmp/ccIShVPd.s:2362   .debug_str:00000000000006cc .LASF95
     /tmp/ccIShVPd.s:2166   .debug_str:000000000000004f .LASF96
     /tmp/ccIShVPd.s:2324   .debug_str:00000000000005be .LASF97
     /tmp/ccIShVPd.s:27     .text:0000000000000000 .LFB37
     /tmp/ccIShVPd.s:259    .text:000000000000017c .LFE37
     /tmp/ccIShVPd.s:2230   .debug_str:000000000000031d .LASF98
     /tmp/ccIShVPd.s:201    .text:000000000000011c .LBB30
     /tmp/ccIShVPd.s:236    .text:0000000000000150 .LBE30
     /tmp/ccIShVPd.s:2318   .debug_str:0000000000000584 .LASF99
GAS LISTING /tmp/ccIShVPd.s 			page 15


     /tmp/ccIShVPd.s:2078   .debug_loc:0000000000000000 .LLST5
     /tmp/ccIShVPd.s:2386   .debug_str:0000000000000796 .LASF100
     /tmp/ccIShVPd.s:2330   .debug_str:00000000000005e8 .LASF121
     /tmp/ccIShVPd.s:2089   .debug_loc:0000000000000036 .LLST6
     /tmp/ccIShVPd.s:2266   .debug_str:0000000000000423 .LASF101
     /tmp/ccIShVPd.s:221    .text:000000000000013c .LBB31
     /tmp/ccIShVPd.s:235    .text:0000000000000150 .LBE31
     /tmp/ccIShVPd.s:2096   .debug_loc:0000000000000059 .LLST7
     /tmp/ccIShVPd.s:230    .text:000000000000014c .LVL26
     /tmp/ccIShVPd.s:205    .text:0000000000000128 .LVL22
     /tmp/ccIShVPd.s:107    .text:00000000000000cc .LBB18
     /tmp/ccIShVPd.s:119    .text:00000000000000d0 .LBE18
     /tmp/ccIShVPd.s:121    .text:00000000000000d0 .LBB20
     /tmp/ccIShVPd.s:136    .text:00000000000000dc .LBE20
     /tmp/ccIShVPd.s:2103   .debug_loc:000000000000007c .LLST0
     /tmp/ccIShVPd.s:147    .text:00000000000000e8 .LBB22
     /tmp/ccIShVPd.s:155    .text:00000000000000ec .LBE22
     /tmp/ccIShVPd.s:2111   .debug_loc:00000000000000a0 .LLST1
     /tmp/ccIShVPd.s:161    .text:00000000000000f4 .LBB24
     /tmp/ccIShVPd.s:168    .text:00000000000000f8 .LBE24
     /tmp/ccIShVPd.s:2118   .debug_loc:00000000000000c3 .LLST2
     /tmp/ccIShVPd.s:174    .text:0000000000000100 .LBB26
     /tmp/ccIShVPd.s:181    .text:0000000000000104 .LBE26
     /tmp/ccIShVPd.s:2125   .debug_loc:00000000000000e6 .LLST3
     /tmp/ccIShVPd.s:187    .text:000000000000010c .LBB28
     /tmp/ccIShVPd.s:194    .text:0000000000000110 .LBE28
     /tmp/ccIShVPd.s:2132   .debug_loc:0000000000000109 .LLST4
     /tmp/ccIShVPd.s:48     .text:0000000000000024 .LVL0
     /tmp/ccIShVPd.s:59     .text:0000000000000044 .LVL1
     /tmp/ccIShVPd.s:66     .text:0000000000000058 .LVL2
     /tmp/ccIShVPd.s:71     .text:0000000000000068 .LVL3
     /tmp/ccIShVPd.s:78     .text:000000000000007c .LVL4
     /tmp/ccIShVPd.s:83     .text:000000000000008c .LVL5
     /tmp/ccIShVPd.s:90     .text:00000000000000a0 .LVL6
     /tmp/ccIShVPd.s:95     .text:00000000000000b0 .LVL7
     /tmp/ccIShVPd.s:102    .text:00000000000000c4 .LVL8
     /tmp/ccIShVPd.s:140    .text:00000000000000e4 .LVL12
     /tmp/ccIShVPd.s:241    .text:0000000000000160 .LVL28
     /tmp/ccIShVPd.s:2400   .debug_str:00000000000007f2 .LASF102
     /tmp/ccIShVPd.s:2294   .debug_str:00000000000004f2 .LASF103
     /tmp/ccIShVPd.s:2392   .debug_str:00000000000007c2 .LASF104
     /tmp/ccIShVPd.s:2168   .debug_str:0000000000000073 .LASF105
     /tmp/ccIShVPd.s:2286   .debug_str:00000000000004bb .LASF122
     /tmp/ccIShVPd.s:2348   .debug_str:0000000000000667 .LASF106
     /tmp/ccIShVPd.s:2252   .debug_str:00000000000003d5 .LASF108
     /tmp/ccIShVPd.s:2280   .debug_str:000000000000049a .LASF107
     /tmp/ccIShVPd.s:2332   .debug_str:00000000000005f4 .LASF109
     /tmp/ccIShVPd.s:2204   .debug_str:0000000000000196 .LASF123
     /tmp/ccIShVPd.s:2162   .debug_str:000000000000003b .LASF124
     /tmp/ccIShVPd.s:199    .text:000000000000011c .LVL21
     /tmp/ccIShVPd.s:209    .text:000000000000012c .LVL23
     /tmp/ccIShVPd.s:214    .text:0000000000000134 .LVL24
     /tmp/ccIShVPd.s:232    .text:0000000000000150 .LVL27
     /tmp/ccIShVPd.s:252    .text:0000000000000170 .LVL29
     /tmp/ccIShVPd.s:220    .text:000000000000013c .LVL25
     /tmp/ccIShVPd.s:116    .text:00000000000000d0 .LVL10
     /tmp/ccIShVPd.s:133    .text:00000000000000dc .LVL11
GAS LISTING /tmp/ccIShVPd.s 			page 16


     /tmp/ccIShVPd.s:146    .text:00000000000000e8 .LVL13
     /tmp/ccIShVPd.s:153    .text:00000000000000ec .LVL14
     /tmp/ccIShVPd.s:160    .text:00000000000000f4 .LVL15
     /tmp/ccIShVPd.s:166    .text:00000000000000f8 .LVL16
     /tmp/ccIShVPd.s:173    .text:0000000000000100 .LVL17
     /tmp/ccIShVPd.s:179    .text:0000000000000104 .LVL18
     /tmp/ccIShVPd.s:186    .text:000000000000010c .LVL19
     /tmp/ccIShVPd.s:192    .text:0000000000000110 .LVL20
     /tmp/ccIShVPd.s:265    .debug_info:0000000000000000 .Ldebug_info0

UNDEFINED SYMBOLS
_ZN3TCB12createThreadEPFvvE
_ZN3TCB7runningE
_Z11workerBodyAv
_Z11printStringPKc
_Z11workerBodyBv
_Z11workerBodyCv
_Z11workerBodyDv
_ZN5Riscv14supervisorTrapEv
_ZN3TCB5yieldEv
_ZdlPv
_ZdaPv
