GAS LISTING /tmp/ccAngEwX.s 			page 1


   1              		.file	"print.cpp"
   2              		.option pic
   3              		.option norelax
   4              		.text
   5              	.Ltext0:
   6              		.align	2
   7              		.globl	_Z11printStringPKc
   9              	_Z11printStringPKc:
  10              	.LFB18:
  11              		.file 1 "src/print.cpp"
   1:src/print.cpp **** //
   2:src/print.cpp **** // Created by os on 5/21/24.
   3:src/print.cpp **** //
   4:src/print.cpp **** 
   5:src/print.cpp **** #include "../h/print.hpp"
   6:src/print.cpp **** #include "../lib/console.h"
   7:src/print.cpp **** #include "../h/riscv.hpp"
   8:src/print.cpp **** 
   9:src/print.cpp **** void printString(char const *string)
  10:src/print.cpp **** {
  12              		.loc 1 10 1
  13              		.cfi_startproc
  14              	.LVL0:
  15 0000 130101FD 		addi	sp,sp,-48
  16              		.cfi_def_cfa_offset 48
  17 0004 23341102 		sd	ra,40(sp)
  18 0008 23308102 		sd	s0,32(sp)
  19 000c 233C9100 		sd	s1,24(sp)
  20 0010 23382101 		sd	s2,16(sp)
  21              		.cfi_offset 1, -8
  22              		.cfi_offset 8, -16
  23              		.cfi_offset 9, -24
  24              		.cfi_offset 18, -32
  25 0014 13040103 		addi	s0,sp,48
  26              		.cfi_def_cfa 8, 0
  27 0018 93040500 		mv	s1,a0
  11:src/print.cpp ****     uint64 sstatus = Riscv::r_sstatus();
  28              		.loc 1 11 5
  29              	.LBB14:
  30              	.LBB15:
  31              		.file 2 "src/../h/riscv.hpp"
   1:src/../h/riscv.hpp **** //
   2:src/../h/riscv.hpp **** // Created by os on 5/22/24.
   3:src/../h/riscv.hpp **** //
   4:src/../h/riscv.hpp **** 
   5:src/../h/riscv.hpp **** #ifndef PROJECT_BASE_RISCV_HPP
   6:src/../h/riscv.hpp **** #define PROJECT_BASE_RISCV_HPP
   7:src/../h/riscv.hpp **** 
   8:src/../h/riscv.hpp **** #include "../lib/hw.h"
   9:src/../h/riscv.hpp **** 
  10:src/../h/riscv.hpp **** class Riscv
  11:src/../h/riscv.hpp **** {
  12:src/../h/riscv.hpp **** public:
  13:src/../h/riscv.hpp **** 
  14:src/../h/riscv.hpp ****     // push registers x3..x31
  15:src/../h/riscv.hpp ****     static void pushRegisters();
  16:src/../h/riscv.hpp **** 
GAS LISTING /tmp/ccAngEwX.s 			page 2


  17:src/../h/riscv.hpp ****     // pop registers x3..x31
  18:src/../h/riscv.hpp ****     static void popRegisters();
  19:src/../h/riscv.hpp **** 
  20:src/../h/riscv.hpp ****     // pop sstatus.spp and sstatus.spie bits (has to be a non inline function)
  21:src/../h/riscv.hpp ****     static void popSppSpie();
  22:src/../h/riscv.hpp **** 
  23:src/../h/riscv.hpp ****     // read register scause
  24:src/../h/riscv.hpp ****     static uint64 r_scause();
  25:src/../h/riscv.hpp **** 
  26:src/../h/riscv.hpp ****     // write register scause
  27:src/../h/riscv.hpp ****     static void w_scause(uint64 scause);
  28:src/../h/riscv.hpp **** 
  29:src/../h/riscv.hpp ****     // read register sepc
  30:src/../h/riscv.hpp ****     static uint64 r_sepc();
  31:src/../h/riscv.hpp **** 
  32:src/../h/riscv.hpp ****     // write register sepc
  33:src/../h/riscv.hpp ****     static void w_sepc(uint64 sepc);
  34:src/../h/riscv.hpp **** 
  35:src/../h/riscv.hpp ****     // read register stvec
  36:src/../h/riscv.hpp ****     static uint64 r_stvec();
  37:src/../h/riscv.hpp **** 
  38:src/../h/riscv.hpp ****     // write register stvec
  39:src/../h/riscv.hpp ****     static void w_stvec(uint64 stvec);
  40:src/../h/riscv.hpp **** 
  41:src/../h/riscv.hpp ****     // read register stval
  42:src/../h/riscv.hpp ****     static uint64 r_stval();
  43:src/../h/riscv.hpp **** 
  44:src/../h/riscv.hpp ****     // write register stval
  45:src/../h/riscv.hpp ****     static void w_stval(uint64 stval);
  46:src/../h/riscv.hpp **** 
  47:src/../h/riscv.hpp ****     enum BitMaskSip
  48:src/../h/riscv.hpp ****     {
  49:src/../h/riscv.hpp ****         SIP_SSIP = (1 << 1),
  50:src/../h/riscv.hpp ****         SIP_STIP = (1 << 5),
  51:src/../h/riscv.hpp ****         SIP_SEIP = (1 << 9),
  52:src/../h/riscv.hpp ****     };
  53:src/../h/riscv.hpp **** 
  54:src/../h/riscv.hpp ****     // mask set register sip
  55:src/../h/riscv.hpp ****     static void ms_sip(uint64 mask);
  56:src/../h/riscv.hpp **** 
  57:src/../h/riscv.hpp ****     // mask clear register sip
  58:src/../h/riscv.hpp ****     static void mc_sip(uint64 mask);
  59:src/../h/riscv.hpp **** 
  60:src/../h/riscv.hpp ****     // read register sip
  61:src/../h/riscv.hpp ****     static uint64 r_sip();
  62:src/../h/riscv.hpp **** 
  63:src/../h/riscv.hpp ****     // write register sip
  64:src/../h/riscv.hpp ****     static void w_sip(uint64 sip);
  65:src/../h/riscv.hpp **** 
  66:src/../h/riscv.hpp ****     enum BitMaskSstatus
  67:src/../h/riscv.hpp ****     {
  68:src/../h/riscv.hpp ****         SSTATUS_SIE = (1 << 1),
  69:src/../h/riscv.hpp ****         SSTATUS_SPIE = (1 << 5),
  70:src/../h/riscv.hpp ****         SSTATUS_SPP = (1 << 8),
  71:src/../h/riscv.hpp ****     };
  72:src/../h/riscv.hpp **** 
  73:src/../h/riscv.hpp ****     // mask set register sstatus
GAS LISTING /tmp/ccAngEwX.s 			page 3


  74:src/../h/riscv.hpp ****     static void ms_sstatus(uint64 mask);
  75:src/../h/riscv.hpp **** 
  76:src/../h/riscv.hpp ****     // mask clear register sstatus
  77:src/../h/riscv.hpp ****     static void mc_sstatus(uint64 mask);
  78:src/../h/riscv.hpp **** 
  79:src/../h/riscv.hpp ****     // read register sstatus
  80:src/../h/riscv.hpp ****     static uint64 r_sstatus();
  81:src/../h/riscv.hpp **** 
  82:src/../h/riscv.hpp ****     // write register sstatus
  83:src/../h/riscv.hpp ****     static void w_sstatus(uint64 sstatus);
  84:src/../h/riscv.hpp **** 
  85:src/../h/riscv.hpp ****     // supervisor trap
  86:src/../h/riscv.hpp ****     static void supervisorTrap();
  87:src/../h/riscv.hpp **** 
  88:src/../h/riscv.hpp ****     //stvec Vector "table"
  89:src/../h/riscv.hpp ****     static void stvecVectorTable();
  90:src/../h/riscv.hpp **** 
  91:src/../h/riscv.hpp ****     //read a0 register
  92:src/../h/riscv.hpp ****     static uint64 r_a0();
  93:src/../h/riscv.hpp **** 
  94:src/../h/riscv.hpp ****     //write to a0 register
  95:src/../h/riscv.hpp ****     static void w_a0(uint64 writeValue);
  96:src/../h/riscv.hpp **** 
  97:src/../h/riscv.hpp **** private:
  98:src/../h/riscv.hpp **** 
  99:src/../h/riscv.hpp ****     // supervisor trap handler
 100:src/../h/riscv.hpp ****     static void handleSupervisorTrap();
 101:src/../h/riscv.hpp **** 
 102:src/../h/riscv.hpp ****     static void handleTimerInterrupt();
 103:src/../h/riscv.hpp **** 
 104:src/../h/riscv.hpp ****     static void handleConsoleInterrupt();
 105:src/../h/riscv.hpp **** };
 106:src/../h/riscv.hpp **** 
 107:src/../h/riscv.hpp **** 
 108:src/../h/riscv.hpp **** inline uint64 Riscv::r_scause()
 109:src/../h/riscv.hpp **** {
 110:src/../h/riscv.hpp ****     uint64 volatile scause;
 111:src/../h/riscv.hpp ****     __asm__ volatile ("csrr %[scause], scause" : [scause] "=r"(scause));
 112:src/../h/riscv.hpp ****     return scause;
 113:src/../h/riscv.hpp **** }
 114:src/../h/riscv.hpp **** 
 115:src/../h/riscv.hpp **** inline void Riscv::w_scause(uint64 scause)
 116:src/../h/riscv.hpp **** {
 117:src/../h/riscv.hpp ****     __asm__ volatile ("csrw scause, %[scause]" : : [scause] "r"(scause));
 118:src/../h/riscv.hpp **** }
 119:src/../h/riscv.hpp **** 
 120:src/../h/riscv.hpp **** inline uint64 Riscv::r_sepc()
 121:src/../h/riscv.hpp **** {
 122:src/../h/riscv.hpp ****     uint64 volatile sepc;
 123:src/../h/riscv.hpp ****     __asm__ volatile ("csrr %[sepc], sepc" : [sepc] "=r"(sepc));
 124:src/../h/riscv.hpp ****     return sepc;
 125:src/../h/riscv.hpp **** }
 126:src/../h/riscv.hpp **** 
 127:src/../h/riscv.hpp **** inline void Riscv::w_sepc(uint64 sepc)
 128:src/../h/riscv.hpp **** {
 129:src/../h/riscv.hpp ****     __asm__ volatile ("csrw sepc, %[sepc]" : : [sepc] "r"(sepc));
 130:src/../h/riscv.hpp **** }
GAS LISTING /tmp/ccAngEwX.s 			page 4


 131:src/../h/riscv.hpp **** 
 132:src/../h/riscv.hpp **** inline uint64 Riscv::r_stvec()
 133:src/../h/riscv.hpp **** {
 134:src/../h/riscv.hpp ****     uint64 volatile stvec;
 135:src/../h/riscv.hpp ****     __asm__ volatile ("csrr %[stvec], stvec" : [stvec] "=r"(stvec));
 136:src/../h/riscv.hpp ****     return stvec;
 137:src/../h/riscv.hpp **** }
 138:src/../h/riscv.hpp **** 
 139:src/../h/riscv.hpp **** inline void Riscv::w_stvec(uint64 stvec)
 140:src/../h/riscv.hpp **** {
 141:src/../h/riscv.hpp ****     __asm__ volatile ("csrw stvec, %[stvec]" : : [stvec] "r"(stvec));
 142:src/../h/riscv.hpp **** }
 143:src/../h/riscv.hpp **** 
 144:src/../h/riscv.hpp **** inline uint64 Riscv::r_stval()
 145:src/../h/riscv.hpp **** {
 146:src/../h/riscv.hpp ****     uint64 volatile stval;
 147:src/../h/riscv.hpp ****     __asm__ volatile ("csrr %[stval], stval" : [stval] "=r"(stval));
 148:src/../h/riscv.hpp ****     return stval;
 149:src/../h/riscv.hpp **** }
 150:src/../h/riscv.hpp **** 
 151:src/../h/riscv.hpp **** inline void Riscv::w_stval(uint64 stval)
 152:src/../h/riscv.hpp **** {
 153:src/../h/riscv.hpp ****     __asm__ volatile ("csrw stval, %[stval]" : : [stval] "r"(stval));
 154:src/../h/riscv.hpp **** }
 155:src/../h/riscv.hpp **** 
 156:src/../h/riscv.hpp **** inline void Riscv::ms_sip(uint64 mask)
 157:src/../h/riscv.hpp **** {
 158:src/../h/riscv.hpp ****     __asm__ volatile ("csrs sip, %[mask]" : : [mask] "r"(mask));
 159:src/../h/riscv.hpp **** }
 160:src/../h/riscv.hpp **** 
 161:src/../h/riscv.hpp **** inline void Riscv::mc_sip(uint64 mask)
 162:src/../h/riscv.hpp **** {
 163:src/../h/riscv.hpp ****     __asm__ volatile ("csrc sip, %[mask]" : : [mask] "r"(mask));
 164:src/../h/riscv.hpp **** }
 165:src/../h/riscv.hpp **** 
 166:src/../h/riscv.hpp **** inline uint64 Riscv::r_sip()
 167:src/../h/riscv.hpp **** {
 168:src/../h/riscv.hpp ****     uint64 volatile sip;
 169:src/../h/riscv.hpp ****     __asm__ volatile ("csrr %[sip], sip" : [sip] "=r"(sip));
 170:src/../h/riscv.hpp ****     return sip;
 171:src/../h/riscv.hpp **** }
 172:src/../h/riscv.hpp **** 
 173:src/../h/riscv.hpp **** inline void Riscv::w_sip(uint64 sip)
 174:src/../h/riscv.hpp **** {
 175:src/../h/riscv.hpp ****     __asm__ volatile ("csrw sip, %[sip]" : : [sip] "r"(sip));
 176:src/../h/riscv.hpp **** }
 177:src/../h/riscv.hpp **** 
 178:src/../h/riscv.hpp **** inline void Riscv::ms_sstatus(uint64 mask)
 179:src/../h/riscv.hpp **** {
 180:src/../h/riscv.hpp ****     __asm__ volatile ("csrs sstatus, %[mask]" : : [mask] "r"(mask));
 181:src/../h/riscv.hpp **** }
 182:src/../h/riscv.hpp **** 
 183:src/../h/riscv.hpp **** inline void Riscv::mc_sstatus(uint64 mask)
 184:src/../h/riscv.hpp **** {
 185:src/../h/riscv.hpp ****     __asm__ volatile ("csrc sstatus, %[mask]" : : [mask] "r"(mask));
 186:src/../h/riscv.hpp **** }
 187:src/../h/riscv.hpp **** 
GAS LISTING /tmp/ccAngEwX.s 			page 5


 188:src/../h/riscv.hpp **** inline uint64 Riscv::r_sstatus()
 189:src/../h/riscv.hpp **** {
 190:src/../h/riscv.hpp ****     uint64 volatile sstatus;
  32              		.loc 2 190 5
 191:src/../h/riscv.hpp ****     __asm__ volatile ("csrr %[sstatus], sstatus" : [sstatus] "=r"(sstatus));
  33              		.loc 2 191 5
  34              		.loc 2 191 76 is_stmt 0
  35              	#APP
  36              	# 191 "src/../h/riscv.hpp" 1
 192              	    return sstatus;
  37              		csrr a5, sstatus
  38              	# 0 "" 2
  39              	#NO_APP
  40 0020 233CF4FC 		sd	a5,-40(s0)
  41              		.loc 2 192 5 is_stmt 1
  42              		.loc 2 192 12 is_stmt 0
  43 0024 033984FD 		ld	s2,-40(s0)
  44              	.LVL1:
  45              	.LBE15:
  46              	.LBE14:
  12:src/print.cpp ****     Riscv::mc_sstatus(Riscv::SSTATUS_SIE);
  47              		.loc 1 12 5 is_stmt 1
  48              	.LBB16:
  49              	.LBB17:
 185:src/../h/riscv.hpp **** }
  50              		.loc 2 185 5
 185:src/../h/riscv.hpp **** }
  51              		.loc 2 185 68 is_stmt 0
  52 0028 93072000 		li	a5,2
  53              	#APP
  54              	# 185 "src/../h/riscv.hpp" 1
  55              		csrc sstatus, a5
  56              	# 0 "" 2
  57              	.LVL2:
  58              	#NO_APP
  59              	.L3:
  60              	.LBE17:
  61              	.LBE16:
  13:src/print.cpp ****     while (*string != '\0')
  62              		.loc 1 13 5 is_stmt 1
  63              		.loc 1 13 20
  64              		.loc 1 13 12 is_stmt 0
  65 0030 03C50400 		lbu	a0,0(s1)
  66              		.loc 1 13 20
  67 0034 630A0500 		beqz	a0,.L2
  14:src/print.cpp ****     {
  15:src/print.cpp ****         __putc(*string);
  68              		.loc 1 15 9 is_stmt 1
  69              		.loc 1 15 15 is_stmt 0
  70 0038 97000000 		call	__putc@plt
  70      E7800000 
  71              	.LVL3:
  16:src/print.cpp ****         string++;
  72              		.loc 1 16 9 is_stmt 1
  73              		.loc 1 16 15 is_stmt 0
  74 0040 93841400 		addi	s1,s1,1
  75              	.LVL4:
GAS LISTING /tmp/ccAngEwX.s 			page 6


  13:src/print.cpp ****     while (*string != '\0')
  76              		.loc 1 13 5
  77 0044 6FF0DFFE 		j	.L3
  78              	.L2:
  17:src/print.cpp ****     }
  18:src/print.cpp ****     Riscv::ms_sstatus(sstatus & Riscv::SSTATUS_SIE ? Riscv::SSTATUS_SIE : 0);
  79              		.loc 1 18 5 is_stmt 1
  80              		.loc 1 18 52 is_stmt 0
  81 0048 1B090900 		sext.w	s2,s2
  82              	.LVL5:
  83              		.loc 1 18 22
  84 004c 13792900 		andi	s2,s2,2
  85 0050 1B090900 		sext.w	s2,s2
  86              	.LVL6:
  87              	.LBB18:
  88              	.LBB19:
 180:src/../h/riscv.hpp **** }
  89              		.loc 2 180 5 is_stmt 1
 180:src/../h/riscv.hpp **** }
  90              		.loc 2 180 68 is_stmt 0
  91              	#APP
  92              	# 180 "src/../h/riscv.hpp" 1
  93              		csrs sstatus, s2
  94              	# 0 "" 2
  95              	.LVL7:
  96              	#NO_APP
  97              	.LBE19:
  98              	.LBE18:
  19:src/print.cpp **** 
  20:src/print.cpp **** }
  99              		.loc 1 20 1
 100 0058 83308102 		ld	ra,40(sp)
 101              		.cfi_restore 1
 102 005c 03340102 		ld	s0,32(sp)
 103              		.cfi_restore 8
 104              		.cfi_def_cfa 2, 48
 105 0060 83348101 		ld	s1,24(sp)
 106              		.cfi_restore 9
 107              	.LVL8:
 108 0064 03390101 		ld	s2,16(sp)
 109              		.cfi_restore 18
 110 0068 13010103 		addi	sp,sp,48
 111              		.cfi_def_cfa_offset 0
 112 006c 67800000 		jr	ra
 113              		.cfi_endproc
 114              	.LFE18:
 116              		.align	2
 117              		.globl	_Z8printIntiii
 119              	_Z8printIntiii:
 120              	.LFB19:
  21:src/print.cpp **** 
  22:src/print.cpp **** char digits[] = "0123456789ABCDEF";
  23:src/print.cpp **** 
  24:src/print.cpp **** void printInt(int xx, int base, int sgn)
  25:src/print.cpp **** {
 121              		.loc 1 25 1 is_stmt 1
 122              		.cfi_startproc
GAS LISTING /tmp/ccAngEwX.s 			page 7


 123              	.LVL9:
 124 0070 130101FC 		addi	sp,sp,-64
 125              		.cfi_def_cfa_offset 64
 126 0074 233C1102 		sd	ra,56(sp)
 127 0078 23388102 		sd	s0,48(sp)
 128 007c 23349102 		sd	s1,40(sp)
 129 0080 23302103 		sd	s2,32(sp)
 130              		.cfi_offset 1, -8
 131              		.cfi_offset 8, -16
 132              		.cfi_offset 9, -24
 133              		.cfi_offset 18, -32
 134 0084 13040104 		addi	s0,sp,64
 135              		.cfi_def_cfa 8, 0
  26:src/print.cpp ****     uint64 sstatus = Riscv::r_sstatus();
 136              		.loc 1 26 5
 137              	.LBB20:
 138              	.LBB21:
 190:src/../h/riscv.hpp ****     __asm__ volatile ("csrr %[sstatus], sstatus" : [sstatus] "=r"(sstatus));
 139              		.loc 2 190 5
 191:src/../h/riscv.hpp ****     return sstatus;
 140              		.loc 2 191 5
 191:src/../h/riscv.hpp ****     return sstatus;
 141              		.loc 2 191 76 is_stmt 0
 142              	#APP
 143              	# 191 "src/../h/riscv.hpp" 1
 144              		csrr a5, sstatus
 145              	# 0 "" 2
 146              	#NO_APP
 147 008c 2334F4FC 		sd	a5,-56(s0)
 148              		.loc 2 192 5 is_stmt 1
 149              		.loc 2 192 12 is_stmt 0
 150 0090 033984FC 		ld	s2,-56(s0)
 151              	.LVL10:
 152              	.LBE21:
 153              	.LBE20:
  27:src/print.cpp ****     Riscv::mc_sstatus(Riscv::SSTATUS_SIE);
 154              		.loc 1 27 5 is_stmt 1
 155              	.LBB22:
 156              	.LBB23:
 185:src/../h/riscv.hpp **** }
 157              		.loc 2 185 5
 185:src/../h/riscv.hpp **** }
 158              		.loc 2 185 68 is_stmt 0
 159 0094 93072000 		li	a5,2
 160              	#APP
 161              	# 185 "src/../h/riscv.hpp" 1
 162              		csrc sstatus, a5
 163              	# 0 "" 2
 164              	.LVL11:
 165              	#NO_APP
 166              	.LBE23:
 167              	.LBE22:
  28:src/print.cpp **** 
  29:src/print.cpp ****     char buf[16];
 168              		.loc 1 29 5 is_stmt 1
  30:src/print.cpp ****     int i, neg;
 169              		.loc 1 30 5
GAS LISTING /tmp/ccAngEwX.s 			page 8


  31:src/print.cpp ****     uint x;
 170              		.loc 1 31 5
  32:src/print.cpp **** 
  33:src/print.cpp ****     neg = 0;
 171              		.loc 1 33 5
  34:src/print.cpp ****     if(sgn && xx < 0){
 172              		.loc 1 34 5
 173 009c 63040600 		beqz	a2,.L6
 174              		.loc 1 34 12 is_stmt 0 discriminator 1
 175 00a0 63440508 		bltz	a0,.L13
 176              	.L6:
  35:src/print.cpp ****         neg = 1;
  36:src/print.cpp ****         x = -xx;
  37:src/print.cpp ****     } else {
  38:src/print.cpp ****         x = xx;
 177              		.loc 1 38 9 is_stmt 1
 178              		.loc 1 38 11 is_stmt 0
 179 00a4 1B050500 		sext.w	a0,a0
 180              	.LVL12:
  33:src/print.cpp ****     if(sgn && xx < 0){
 181              		.loc 1 33 9
 182 00a8 13080000 		li	a6,0
 183              	.LVL13:
 184              	.L7:
  39:src/print.cpp ****     }
  40:src/print.cpp **** 
  41:src/print.cpp ****     i = 0;
 185              		.loc 1 41 5 is_stmt 1
 186              		.loc 1 41 7 is_stmt 0
 187 00ac 93040000 		li	s1,0
 188              	.LVL14:
 189              	.L8:
  42:src/print.cpp ****     do{
 190              		.loc 1 42 5 is_stmt 1
  43:src/print.cpp ****         buf[i++] = digits[x % base];
 191              		.loc 1 43 9
 192              		.loc 1 43 31 is_stmt 0
 193 00b0 9B870500 		sext.w	a5,a1
 194              		.loc 1 43 29
 195 00b4 3B77B502 		remuw	a4,a0,a1
 196 00b8 13860400 		mv	a2,s1
 197              		.loc 1 43 14
 198 00bc 9B841400 		addiw	s1,s1,1
 199              	.LVL15:
 200              		.loc 1 43 35
 201 00c0 93160702 		slli	a3,a4,32
 202 00c4 93D60602 		srli	a3,a3,32
 203 00c8 17070000 		lla	a4,.LANCHOR0
 203      13070700 
 204 00d0 3307D700 		add	a4,a4,a3
 205 00d4 83460700 		lbu	a3,0(a4)
 206              		.loc 1 43 18
 207 00d8 130704FE 		addi	a4,s0,-32
 208 00dc 3307C700 		add	a4,a4,a2
 209 00e0 2308D7FE 		sb	a3,-16(a4)
  44:src/print.cpp ****     }while((x /= base) != 0);
 210              		.loc 1 44 24 is_stmt 1
GAS LISTING /tmp/ccAngEwX.s 			page 9


 211 00e4 1B070500 		sext.w	a4,a0
 212              		.loc 1 44 15 is_stmt 0
 213 00e8 3B55B502 		divuw	a0,a0,a1
 214              	.LVL16:
 215              		.loc 1 44 24
 216 00ec E372F7FC 		bleu	a5,a4,.L8
  45:src/print.cpp ****     if(neg)
 217              		.loc 1 45 5 is_stmt 1
 218 00f0 630C0800 		beqz	a6,.L11
  46:src/print.cpp ****         buf[i++] = '-';
 219              		.loc 1 46 9
 220              	.LVL17:
 221              		.loc 1 46 18 is_stmt 0
 222 00f4 930704FE 		addi	a5,s0,-32
 223 00f8 B3849700 		add	s1,a5,s1
 224 00fc 9307D002 		li	a5,45
 225 0100 2388F4FE 		sb	a5,-16(s1)
 226              		.loc 1 46 14
 227 0104 9B042600 		addiw	s1,a2,2
 228              	.LVL18:
 229              	.L11:
  47:src/print.cpp **** 
  48:src/print.cpp ****     while(--i >= 0)
 230              		.loc 1 48 5 is_stmt 1
 231              		.loc 1 48 15
 232 0108 9B84F4FF 		addiw	s1,s1,-1
 233              	.LVL19:
 234 010c 63C40402 		bltz	s1,.L10
  49:src/print.cpp ****         __putc(buf[i]);
 235              		.loc 1 49 9
 236              		.loc 1 49 15 is_stmt 0
 237 0110 930704FE 		addi	a5,s0,-32
 238 0114 B3879700 		add	a5,a5,s1
 239 0118 03C507FF 		lbu	a0,-16(a5)
 240 011c 97000000 		call	__putc@plt
 240      E7800000 
 241              	.LVL20:
 242 0124 6FF05FFE 		j	.L11
 243              	.LVL21:
 244              	.L13:
  35:src/print.cpp ****         x = -xx;
 245              		.loc 1 35 9 is_stmt 1
  36:src/print.cpp ****     } else {
 246              		.loc 1 36 9
  36:src/print.cpp ****     } else {
 247              		.loc 1 36 11 is_stmt 0
 248 0128 3B05A040 		negw	a0,a0
 249              	.LVL22:
  35:src/print.cpp ****         x = -xx;
 250              		.loc 1 35 13
 251 012c 13081000 		li	a6,1
  36:src/print.cpp ****     } else {
 252              		.loc 1 36 11
 253 0130 6FF0DFF7 		j	.L7
 254              	.LVL23:
 255              	.L10:
  50:src/print.cpp **** 
GAS LISTING /tmp/ccAngEwX.s 			page 10


  51:src/print.cpp **** 
  52:src/print.cpp ****     Riscv::ms_sstatus(sstatus & Riscv::SSTATUS_SIE ? Riscv::SSTATUS_SIE : 0);
 256              		.loc 1 52 5 is_stmt 1
 257              		.loc 1 52 52 is_stmt 0
 258 0134 1B090900 		sext.w	s2,s2
 259              	.LVL24:
 260              		.loc 1 52 22
 261 0138 13792900 		andi	s2,s2,2
 262 013c 1B090900 		sext.w	s2,s2
 263              	.LVL25:
 264              	.LBB24:
 265              	.LBB25:
 180:src/../h/riscv.hpp **** }
 266              		.loc 2 180 5 is_stmt 1
 180:src/../h/riscv.hpp **** }
 267              		.loc 2 180 68 is_stmt 0
 268              	#APP
 269              	# 180 "src/../h/riscv.hpp" 1
 270              		csrs sstatus, s2
 271              	# 0 "" 2
 272              	.LVL26:
 273              	#NO_APP
 274              	.LBE25:
 275              	.LBE24:
  53:src/print.cpp **** 
  54:src/print.cpp **** 
  55:src/print.cpp **** }...
 276              		.loc 1 55 1
 277 0144 83308103 		ld	ra,56(sp)
 278              		.cfi_restore 1
 279 0148 03340103 		ld	s0,48(sp)
 280              		.cfi_restore 8
 281              		.cfi_def_cfa 2, 64
 282 014c 83348102 		ld	s1,40(sp)
 283              		.cfi_restore 9
 284 0150 03390102 		ld	s2,32(sp)
 285              		.cfi_restore 18
 286 0154 13010104 		addi	sp,sp,64
 287              		.cfi_def_cfa_offset 0
 288 0158 67800000 		jr	ra
 289              		.cfi_endproc
 290              	.LFE19:
 292              		.globl	digits
 293              		.data
 294              		.align	3
 295              		.set	.LANCHOR0,. + 0
 298              	digits:
 299 0000 30313233 		.string	"0123456789ABCDEF"
 299      34353637 
 299      38394142 
 299      43444546 
 299      00
 300              		.text
 301              	.Letext0:
 302              		.file 3 "src/../h/../h/../lib/hw.h"
 303              		.file 4 "src/../lib/console.h"
GAS LISTING /tmp/ccAngEwX.s 			page 11


DEFINED SYMBOLS
                            *ABS*:0000000000000000 print.cpp
     /tmp/ccAngEwX.s:9      .text:0000000000000000 _Z11printStringPKc
     /tmp/ccAngEwX.s:13     .text:0000000000000000 .L0 
     /tmp/ccAngEwX.s:15     .text:0000000000000000 .L0 
     /tmp/ccAngEwX.s:16     .text:0000000000000004 .L0 
     /tmp/ccAngEwX.s:21     .text:0000000000000014 .L0 
     /tmp/ccAngEwX.s:22     .text:0000000000000014 .L0 
     /tmp/ccAngEwX.s:23     .text:0000000000000014 .L0 
     /tmp/ccAngEwX.s:24     .text:0000000000000014 .L0 
     /tmp/ccAngEwX.s:26     .text:0000000000000018 .L0 
     /tmp/ccAngEwX.s:32     .text:000000000000001c .L0 
     /tmp/ccAngEwX.s:33     .text:000000000000001c .L0 
     /tmp/ccAngEwX.s:34     .text:000000000000001c .L0 
  src/../h/riscv.hpp:191    .text:000000000000001c .L0 
     /tmp/ccAngEwX.s:42     .text:0000000000000024 .L0 
     /tmp/ccAngEwX.s:43     .text:0000000000000024 .L0 
     /tmp/ccAngEwX.s:50     .text:0000000000000028 .L0 
     /tmp/ccAngEwX.s:51     .text:0000000000000028 .L0 
     /tmp/ccAngEwX.s:52     .text:0000000000000028 .L0 
     /tmp/ccAngEwX.s:63     .text:0000000000000030 .L0 
     /tmp/ccAngEwX.s:64     .text:0000000000000030 .L0 
     /tmp/ccAngEwX.s:65     .text:0000000000000030 .L0 
     /tmp/ccAngEwX.s:67     .text:0000000000000034 .L0 
     /tmp/ccAngEwX.s:69     .text:0000000000000038 .L0 
     /tmp/ccAngEwX.s:70     .text:0000000000000038 .L0 
     /tmp/ccAngEwX.s:73     .text:0000000000000040 .L0 
     /tmp/ccAngEwX.s:74     .text:0000000000000040 .L0 
     /tmp/ccAngEwX.s:77     .text:0000000000000044 .L0 
     /tmp/ccAngEwX.s:80     .text:0000000000000048 .L0 
     /tmp/ccAngEwX.s:81     .text:0000000000000048 .L0 
     /tmp/ccAngEwX.s:84     .text:000000000000004c .L0 
     /tmp/ccAngEwX.s:90     .text:0000000000000054 .L0 
  src/../h/riscv.hpp:180    .text:0000000000000054 .L0 
     /tmp/ccAngEwX.s:100    .text:0000000000000058 .L0 
     /tmp/ccAngEwX.s:101    .text:000000000000005c .L0 
     /tmp/ccAngEwX.s:103    .text:0000000000000060 .L0 
     /tmp/ccAngEwX.s:104    .text:0000000000000060 .L0 
     /tmp/ccAngEwX.s:106    .text:0000000000000064 .L0 
     /tmp/ccAngEwX.s:109    .text:0000000000000068 .L0 
     /tmp/ccAngEwX.s:111    .text:000000000000006c .L0 
     /tmp/ccAngEwX.s:113    .text:0000000000000070 .L0 
     /tmp/ccAngEwX.s:119    .text:0000000000000070 _Z8printIntiii
     /tmp/ccAngEwX.s:122    .text:0000000000000070 .L0 
     /tmp/ccAngEwX.s:124    .text:0000000000000070 .L0 
     /tmp/ccAngEwX.s:125    .text:0000000000000074 .L0 
     /tmp/ccAngEwX.s:130    .text:0000000000000084 .L0 
     /tmp/ccAngEwX.s:131    .text:0000000000000084 .L0 
     /tmp/ccAngEwX.s:132    .text:0000000000000084 .L0 
     /tmp/ccAngEwX.s:133    .text:0000000000000084 .L0 
     /tmp/ccAngEwX.s:135    .text:0000000000000088 .L0 
     /tmp/ccAngEwX.s:139    .text:0000000000000088 .L0 
     /tmp/ccAngEwX.s:140    .text:0000000000000088 .L0 
     /tmp/ccAngEwX.s:141    .text:0000000000000088 .L0 
  src/../h/riscv.hpp:191    .text:0000000000000088 .L0 
     /tmp/ccAngEwX.s:149    .text:0000000000000090 .L0 
     /tmp/ccAngEwX.s:150    .text:0000000000000090 .L0 
GAS LISTING /tmp/ccAngEwX.s 			page 12


     /tmp/ccAngEwX.s:157    .text:0000000000000094 .L0 
     /tmp/ccAngEwX.s:158    .text:0000000000000094 .L0 
     /tmp/ccAngEwX.s:159    .text:0000000000000094 .L0 
     /tmp/ccAngEwX.s:169    .text:000000000000009c .L0 
     /tmp/ccAngEwX.s:170    .text:000000000000009c .L0 
     /tmp/ccAngEwX.s:171    .text:000000000000009c .L0 
     /tmp/ccAngEwX.s:172    .text:000000000000009c .L0 
     /tmp/ccAngEwX.s:173    .text:000000000000009c .L0 
     /tmp/ccAngEwX.s:175    .text:00000000000000a0 .L0 
     /tmp/ccAngEwX.s:178    .text:00000000000000a4 .L0 
     /tmp/ccAngEwX.s:179    .text:00000000000000a4 .L0 
     /tmp/ccAngEwX.s:182    .text:00000000000000a8 .L0 
     /tmp/ccAngEwX.s:186    .text:00000000000000ac .L0 
     /tmp/ccAngEwX.s:187    .text:00000000000000ac .L0 
     /tmp/ccAngEwX.s:191    .text:00000000000000b0 .L0 
     /tmp/ccAngEwX.s:192    .text:00000000000000b0 .L0 
     /tmp/ccAngEwX.s:193    .text:00000000000000b0 .L0 
     /tmp/ccAngEwX.s:195    .text:00000000000000b4 .L0 
     /tmp/ccAngEwX.s:198    .text:00000000000000bc .L0 
     /tmp/ccAngEwX.s:201    .text:00000000000000c0 .L0 
     /tmp/ccAngEwX.s:207    .text:00000000000000d8 .L0 
     /tmp/ccAngEwX.s:211    .text:00000000000000e4 .L0 
     /tmp/ccAngEwX.s:213    .text:00000000000000e8 .L0 
     /tmp/ccAngEwX.s:216    .text:00000000000000ec .L0 
     /tmp/ccAngEwX.s:218    .text:00000000000000f0 .L0 
     /tmp/ccAngEwX.s:221    .text:00000000000000f4 .L0 
     /tmp/ccAngEwX.s:222    .text:00000000000000f4 .L0 
     /tmp/ccAngEwX.s:227    .text:0000000000000104 .L0 
     /tmp/ccAngEwX.s:231    .text:0000000000000108 .L0 
     /tmp/ccAngEwX.s:232    .text:0000000000000108 .L0 
     /tmp/ccAngEwX.s:236    .text:0000000000000110 .L0 
     /tmp/ccAngEwX.s:237    .text:0000000000000110 .L0 
     /tmp/ccAngEwX.s:246    .text:0000000000000128 .L0 
     /tmp/ccAngEwX.s:247    .text:0000000000000128 .L0 
     /tmp/ccAngEwX.s:248    .text:0000000000000128 .L0 
     /tmp/ccAngEwX.s:251    .text:000000000000012c .L0 
     /tmp/ccAngEwX.s:253    .text:0000000000000130 .L0 
     /tmp/ccAngEwX.s:257    .text:0000000000000134 .L0 
     /tmp/ccAngEwX.s:258    .text:0000000000000134 .L0 
     /tmp/ccAngEwX.s:261    .text:0000000000000138 .L0 
     /tmp/ccAngEwX.s:267    .text:0000000000000140 .L0 
  src/../h/riscv.hpp:180    .text:0000000000000140 .L0 
     /tmp/ccAngEwX.s:277    .text:0000000000000144 .L0 
     /tmp/ccAngEwX.s:278    .text:0000000000000148 .L0 
     /tmp/ccAngEwX.s:280    .text:000000000000014c .L0 
     /tmp/ccAngEwX.s:281    .text:000000000000014c .L0 
     /tmp/ccAngEwX.s:283    .text:0000000000000150 .L0 
     /tmp/ccAngEwX.s:285    .text:0000000000000154 .L0 
     /tmp/ccAngEwX.s:287    .text:0000000000000158 .L0 
     /tmp/ccAngEwX.s:289    .text:000000000000015c .L0 
     /tmp/ccAngEwX.s:298    .data:0000000000000000 digits
     /tmp/ccAngEwX.s:295    .data:0000000000000000 .LANCHOR0
     /tmp/ccAngEwX.s:304    .text:000000000000015c .L0 
     /tmp/ccAngEwX.s:203    .text:00000000000000c8 .L0 
     /tmp/ccAngEwX.s:78     .text:0000000000000048 .L2
     /tmp/ccAngEwX.s:59     .text:0000000000000030 .L3
     /tmp/ccAngEwX.s:176    .text:00000000000000a4 .L6
GAS LISTING /tmp/ccAngEwX.s 			page 13


     /tmp/ccAngEwX.s:244    .text:0000000000000128 .L13
     /tmp/ccAngEwX.s:189    .text:00000000000000b0 .L8
     /tmp/ccAngEwX.s:229    .text:0000000000000108 .L11
     /tmp/ccAngEwX.s:255    .text:0000000000000134 .L10
     /tmp/ccAngEwX.s:184    .text:00000000000000ac .L7
     /tmp/ccAngEwX.s:968    .debug_abbrev:0000000000000000 .Ldebug_abbrev0
     /tmp/ccAngEwX.s:1809   .debug_str:00000000000001c3 .LASF83
     /tmp/ccAngEwX.s:1917   .debug_str:00000000000005ca .LASF84
     /tmp/ccAngEwX.s:1811   .debug_str:000000000000029b .LASF85
     /tmp/ccAngEwX.s:5      .text:0000000000000000 .Ltext0
     /tmp/ccAngEwX.s:301    .text:000000000000015c .Letext0
     /tmp/ccAngEwX.s:1749   .debug_line:0000000000000000 .Ldebug_line0
     /tmp/ccAngEwX.s:1855   .debug_str:00000000000003de .LASF0
     /tmp/ccAngEwX.s:1783   .debug_str:00000000000000ef .LASF3
     /tmp/ccAngEwX.s:1861   .debug_str:00000000000003f8 .LASF1
     /tmp/ccAngEwX.s:1847   .debug_str:00000000000003a2 .LASF2
     /tmp/ccAngEwX.s:1835   .debug_str:0000000000000342 .LASF4
     /tmp/ccAngEwX.s:1887   .debug_str:00000000000004d3 .LASF5
     /tmp/ccAngEwX.s:1769   .debug_str:0000000000000086 .LASF6
     /tmp/ccAngEwX.s:1867   .debug_str:000000000000042f .LASF7
     /tmp/ccAngEwX.s:1853   .debug_str:00000000000003cb .LASF8
     /tmp/ccAngEwX.s:1911   .debug_str:0000000000000592 .LASF9
     /tmp/ccAngEwX.s:1821   .debug_str:00000000000002e3 .LASF10
     /tmp/ccAngEwX.s:1873   .debug_str:0000000000000469 .LASF11
     /tmp/ccAngEwX.s:1907   .debug_str:0000000000000565 .LASF12
     /tmp/ccAngEwX.s:1773   .debug_str:0000000000000099 .LASF13
     /tmp/ccAngEwX.s:1755   .debug_str:0000000000000022 .LASF14
     /tmp/ccAngEwX.s:1781   .debug_str:00000000000000e3 .LASF15
     /tmp/ccAngEwX.s:1883   .debug_str:00000000000004a5 .LASF16
     /tmp/ccAngEwX.s:1787   .debug_str:0000000000000100 .LASF17
     /tmp/ccAngEwX.s:1859   .debug_str:00000000000003f2 .LASF86
     /tmp/ccAngEwX.s:1791   .debug_str:000000000000012a .LASF87
     /tmp/ccAngEwX.s:1785   .debug_str:00000000000000f4 .LASF18
     /tmp/ccAngEwX.s:1843   .debug_str:000000000000037d .LASF19
     /tmp/ccAngEwX.s:1771   .debug_str:000000000000008d .LASF20
     /tmp/ccAngEwX.s:1767   .debug_str:0000000000000078 .LASF21
     /tmp/ccAngEwX.s:1801   .debug_str:000000000000017b .LASF23
     /tmp/ccAngEwX.s:1897   .debug_str:0000000000000527 .LASF22
     /tmp/ccAngEwX.s:1753   .debug_str:0000000000000008 .LASF24
     /tmp/ccAngEwX.s:1879   .debug_str:0000000000000493 .LASF25
     /tmp/ccAngEwX.s:1919   .debug_str:00000000000005d8 .LASF26
     /tmp/ccAngEwX.s:1757   .debug_str:0000000000000032 .LASF27
     /tmp/ccAngEwX.s:1895   .debug_str:0000000000000512 .LASF29
     /tmp/ccAngEwX.s:1799   .debug_str:0000000000000172 .LASF31
     /tmp/ccAngEwX.s:1797   .debug_str:000000000000015d .LASF33
     /tmp/ccAngEwX.s:1889   .debug_str:00000000000004e5 .LASF28
     /tmp/ccAngEwX.s:1875   .debug_str:0000000000000478 .LASF30
     /tmp/ccAngEwX.s:1905   .debug_str:000000000000055e .LASF32
     /tmp/ccAngEwX.s:1899   .debug_str:0000000000000534 .LASF34
     /tmp/ccAngEwX.s:1815   .debug_str:00000000000002cc .LASF35
     /tmp/ccAngEwX.s:1789   .debug_str:0000000000000116 .LASF36
     /tmp/ccAngEwX.s:1751   .debug_str:0000000000000000 .LASF37
     /tmp/ccAngEwX.s:1827   .debug_str:000000000000030c .LASF38
     /tmp/ccAngEwX.s:1805   .debug_str:00000000000001a7 .LASF39
     /tmp/ccAngEwX.s:1775   .debug_str:00000000000000a9 .LASF40
     /tmp/ccAngEwX.s:1923   .debug_str:00000000000005fb .LASF41
     /tmp/ccAngEwX.s:1807   .debug_str:00000000000001af .LASF42
GAS LISTING /tmp/ccAngEwX.s 			page 14


     /tmp/ccAngEwX.s:1857   .debug_str:00000000000003eb .LASF43
     /tmp/ccAngEwX.s:1915   .debug_str:00000000000005b7 .LASF44
     /tmp/ccAngEwX.s:1765   .debug_str:0000000000000071 .LASF45
     /tmp/ccAngEwX.s:1813   .debug_str:00000000000002b9 .LASF46
     /tmp/ccAngEwX.s:1819   .debug_str:00000000000002dd .LASF47
     /tmp/ccAngEwX.s:1903   .debug_str:000000000000054c .LASF48
     /tmp/ccAngEwX.s:1763   .debug_str:000000000000006b .LASF49
     /tmp/ccAngEwX.s:1927   .debug_str:0000000000000608 .LASF50
     /tmp/ccAngEwX.s:1921   .debug_str:00000000000005f0 .LASF51
     /tmp/ccAngEwX.s:1885   .debug_str:00000000000004bb .LASF52
     /tmp/ccAngEwX.s:1837   .debug_str:0000000000000349 .LASF53
     /tmp/ccAngEwX.s:1845   .debug_str:000000000000038a .LASF54
     /tmp/ccAngEwX.s:1779   .debug_str:00000000000000d9 .LASF55
     /tmp/ccAngEwX.s:1829   .debug_str:0000000000000320 .LASF56
     /tmp/ccAngEwX.s:1849   .debug_str:00000000000003b0 .LASF57
     /tmp/ccAngEwX.s:1825   .debug_str:00000000000002f6 .LASF58
     /tmp/ccAngEwX.s:1891   .debug_str:00000000000004ec .LASF59
     /tmp/ccAngEwX.s:1777   .debug_str:00000000000000bd .LASF60
     /tmp/ccAngEwX.s:1795   .debug_str:000000000000014c .LASF61
     /tmp/ccAngEwX.s:1909   .debug_str:0000000000000574 .LASF62
     /tmp/ccAngEwX.s:1901   .debug_str:0000000000000547 .LASF63
     /tmp/ccAngEwX.s:1803   .debug_str:0000000000000196 .LASF64
     /tmp/ccAngEwX.s:1823   .debug_str:00000000000002f1 .LASF65
     /tmp/ccAngEwX.s:1851   .debug_str:00000000000003ba .LASF66
     /tmp/ccAngEwX.s:1913   .debug_str:00000000000005a2 .LASF67
     /tmp/ccAngEwX.s:1841   .debug_str:000000000000035b .LASF69
     /tmp/ccAngEwX.s:1865   .debug_str:000000000000041a .LASF68
     /tmp/ccAngEwX.s:1871   .debug_str:0000000000000447 .LASF70
     /tmp/ccAngEwX.s:1893   .debug_str:00000000000004fb .LASF71
     /tmp/ccAngEwX.s:1761   .debug_str:0000000000000047 .LASF72
     /tmp/ccAngEwX.s:1869   .debug_str:0000000000000442 .LASF73
     /tmp/ccAngEwX.s:1839   .debug_str:0000000000000354 .LASF74
     /tmp/ccAngEwX.s:1817   .debug_str:00000000000002d4 .LASF77
     /tmp/ccAngEwX.s:1863   .debug_str:000000000000040b .LASF79
     /tmp/ccAngEwX.s:120    .text:0000000000000070 .LFB19
     /tmp/ccAngEwX.s:290    .text:000000000000015c .LFE19
     /tmp/ccAngEwX.s:1537   .debug_loc:0000000000000000 .LLST4
     /tmp/ccAngEwX.s:1831   .debug_str:0000000000000336 .LASF75
     /tmp/ccAngEwX.s:1562   .debug_loc:0000000000000062 .LLST5
     /tmp/ccAngEwX.s:1587   .debug_loc:00000000000000c4 .LLST6
     /tmp/ccAngEwX.s:1877   .debug_str:000000000000048b .LASF76
     /tmp/ccAngEwX.s:1612   .debug_loc:0000000000000126 .LLST7
     /tmp/ccAngEwX.s:1619   .debug_loc:0000000000000149 .LLST8
     /tmp/ccAngEwX.s:1641   .debug_loc:00000000000001a8 .LLST9
     /tmp/ccAngEwX.s:1658   .debug_loc:00000000000001f3 .LLST10
     /tmp/ccAngEwX.s:137    .text:0000000000000088 .LBB20
     /tmp/ccAngEwX.s:153    .text:0000000000000094 .LBE20
     /tmp/ccAngEwX.s:155    .text:0000000000000094 .LBB22
     /tmp/ccAngEwX.s:167    .text:000000000000009c .LBE22
     /tmp/ccAngEwX.s:1688   .debug_loc:000000000000024b .LLST11
     /tmp/ccAngEwX.s:264    .text:0000000000000140 .LBB24
     /tmp/ccAngEwX.s:275    .text:0000000000000144 .LBE24
     /tmp/ccAngEwX.s:1696   .debug_loc:000000000000026f .LLST12
     /tmp/ccAngEwX.s:241    .text:0000000000000124 .LVL20
     /tmp/ccAngEwX.s:1759   .debug_str:000000000000003b .LASF78
     /tmp/ccAngEwX.s:1793   .debug_str:0000000000000139 .LASF80
     /tmp/ccAngEwX.s:10     .text:0000000000000000 .LFB18
GAS LISTING /tmp/ccAngEwX.s 			page 15


     /tmp/ccAngEwX.s:114    .text:0000000000000070 .LFE18
     /tmp/ccAngEwX.s:1833   .debug_str:000000000000033b .LASF81
     /tmp/ccAngEwX.s:1703   .debug_loc:0000000000000292 .LLST0
     /tmp/ccAngEwX.s:1714   .debug_loc:00000000000002c8 .LLST1
     /tmp/ccAngEwX.s:29     .text:000000000000001c .LBB14
     /tmp/ccAngEwX.s:46     .text:0000000000000028 .LBE14
     /tmp/ccAngEwX.s:48     .text:0000000000000028 .LBB16
     /tmp/ccAngEwX.s:61     .text:0000000000000030 .LBE16
     /tmp/ccAngEwX.s:1721   .debug_loc:00000000000002eb .LLST2
     /tmp/ccAngEwX.s:87     .text:0000000000000054 .LBB18
     /tmp/ccAngEwX.s:98     .text:0000000000000058 .LBE18
     /tmp/ccAngEwX.s:1729   .debug_loc:000000000000030f .LLST3
     /tmp/ccAngEwX.s:71     .text:0000000000000040 .LVL3
     /tmp/ccAngEwX.s:1925   .debug_str:0000000000000603 .LASF82
     /tmp/ccAngEwX.s:1881   .debug_str:000000000000049e .LASF88
     /tmp/ccAngEwX.s:123    .text:0000000000000070 .LVL9
     /tmp/ccAngEwX.s:183    .text:00000000000000ac .LVL13
     /tmp/ccAngEwX.s:243    .text:0000000000000128 .LVL21
     /tmp/ccAngEwX.s:249    .text:000000000000012c .LVL22
     /tmp/ccAngEwX.s:228    .text:0000000000000108 .LVL18
     /tmp/ccAngEwX.s:254    .text:0000000000000134 .LVL23
     /tmp/ccAngEwX.s:188    .text:00000000000000b0 .LVL14
     /tmp/ccAngEwX.s:151    .text:0000000000000094 .LVL10
     /tmp/ccAngEwX.s:259    .text:0000000000000138 .LVL24
     /tmp/ccAngEwX.s:199    .text:00000000000000c0 .LVL15
     /tmp/ccAngEwX.s:220    .text:00000000000000f4 .LVL17
     /tmp/ccAngEwX.s:233    .text:000000000000010c .LVL19
     /tmp/ccAngEwX.s:164    .text:000000000000009c .LVL11
     /tmp/ccAngEwX.s:180    .text:00000000000000a8 .LVL12
     /tmp/ccAngEwX.s:214    .text:00000000000000ec .LVL16
     /tmp/ccAngEwX.s:263    .text:0000000000000140 .LVL25
     /tmp/ccAngEwX.s:272    .text:0000000000000144 .LVL26
     /tmp/ccAngEwX.s:14     .text:0000000000000000 .LVL0
     /tmp/ccAngEwX.s:57     .text:0000000000000030 .LVL2
     /tmp/ccAngEwX.s:107    .text:0000000000000064 .LVL8
     /tmp/ccAngEwX.s:44     .text:0000000000000028 .LVL1
     /tmp/ccAngEwX.s:82     .text:000000000000004c .LVL5
     /tmp/ccAngEwX.s:86     .text:0000000000000054 .LVL6
     /tmp/ccAngEwX.s:95     .text:0000000000000058 .LVL7
     /tmp/ccAngEwX.s:305    .debug_info:0000000000000000 .Ldebug_info0

UNDEFINED SYMBOLS
__putc
