GAS LISTING /tmp/ccOFftWG.s 			page 1


   1              		.file	"riscv.cpp"
   2              		.option pic
   3              		.option norelax
   4              		.text
   5              	.Ltext0:
   6              		.align	2
   7              		.globl	_ZN5Riscv10popSppSpieEv
   9              	_ZN5Riscv10popSppSpieEv:
  10              	.LFB37:
  11              		.file 1 "src/riscv.cpp"
   1:src/riscv.cpp **** //
   2:src/riscv.cpp **** // Created by os on 5/22/24.
   3:src/riscv.cpp **** //
   4:src/riscv.cpp **** 
   5:src/riscv.cpp **** #include "../h/riscv.hpp"
   6:src/riscv.cpp **** #include "../h/tcb.hpp"
   7:src/riscv.cpp **** #include "../lib/console.h"
   8:src/riscv.cpp **** 
   9:src/riscv.cpp **** void Riscv::popSppSpie(){
  12              		.loc 1 9 25
  13              		.cfi_startproc
  14 0000 130101FF 		addi	sp,sp,-16
  15              		.cfi_def_cfa_offset 16
  16 0004 23348100 		sd	s0,8(sp)
  17              		.cfi_offset 8, -8
  18 0008 13040101 		addi	s0,sp,16
  19              		.cfi_def_cfa 8, 0
  10:src/riscv.cpp **** 
  11:src/riscv.cpp ****     __asm__ volatile("csrw sepc, ra");
  20              		.loc 1 11 5
  21              		.loc 1 11 38 is_stmt 0
  22              	#APP
  23              	# 11 "src/riscv.cpp" 1
  12              	    __asm__ volatile("sret");
  24              		csrw sepc, ra
  25              	# 0 "" 2
  26              		.loc 1 12 5 is_stmt 1
  27              		.loc 1 12 29 is_stmt 0
  28              	# 12 "src/riscv.cpp" 1
  13              	}
  29              		sret
  30              	# 0 "" 2
  31              		.loc 1 13 1
  32              	#NO_APP
  33 0014 03348100 		ld	s0,8(sp)
  34              		.cfi_restore 8
  35              		.cfi_def_cfa 2, 16
  36 0018 13010101 		addi	sp,sp,16
  37              		.cfi_def_cfa_offset 0
  38 001c 67800000 		jr	ra
  39              		.cfi_endproc
  40              	.LFE37:
  42              		.align	2
  43              		.globl	_ZN5Riscv20handleSupervisorTrapEv
  45              	_ZN5Riscv20handleSupervisorTrapEv:
  46              	.LFB38:
  14:src/riscv.cpp **** 
GAS LISTING /tmp/ccOFftWG.s 			page 2


  15:src/riscv.cpp **** void Riscv::handleSupervisorTrap() {
  47              		.loc 1 15 36 is_stmt 1
  48              		.cfi_startproc
  49 0020 130101FB 		addi	sp,sp,-80
  50              		.cfi_def_cfa_offset 80
  51 0024 23341104 		sd	ra,72(sp)
  52 0028 23308104 		sd	s0,64(sp)
  53 002c 233C9102 		sd	s1,56(sp)
  54 0030 23382103 		sd	s2,48(sp)
  55              		.cfi_offset 1, -8
  56              		.cfi_offset 8, -16
  57              		.cfi_offset 9, -24
  58              		.cfi_offset 18, -32
  59 0034 13040105 		addi	s0,sp,80
  60              		.cfi_def_cfa 8, 0
  16:src/riscv.cpp **** 
  17:src/riscv.cpp ****     uint64 scause = r_scause();
  61              		.loc 1 17 5
  62              	.LBB30:
  63              	.LBB31:
  64              		.file 2 "src/../h/riscv.hpp"
   1:src/../h/riscv.hpp **** //
   2:src/../h/riscv.hpp **** // Created by os on 5/22/24.
   3:src/../h/riscv.hpp **** //
   4:src/../h/riscv.hpp **** 
   5:src/../h/riscv.hpp **** #ifndef PROJECT_BASE_RISCV_HPP
   6:src/../h/riscv.hpp **** #define PROJECT_BASE_RISCV_HPP
   7:src/../h/riscv.hpp **** 
   8:src/../h/riscv.hpp **** #include "../lib/hw.h"
   9:src/../h/riscv.hpp **** 
  10:src/../h/riscv.hpp **** class Riscv
  11:src/../h/riscv.hpp **** {
  12:src/../h/riscv.hpp **** public:
  13:src/../h/riscv.hpp **** 
  14:src/../h/riscv.hpp ****     // push registers x3..x31
  15:src/../h/riscv.hpp ****     static void pushRegisters();
  16:src/../h/riscv.hpp **** 
  17:src/../h/riscv.hpp ****     // pop registers x3..x31
  18:src/../h/riscv.hpp ****     static void popRegisters();
  19:src/../h/riscv.hpp **** 
  20:src/../h/riscv.hpp ****     // pop sstatus.spp and sstatus.spie bits (has to be a non inline function)
  21:src/../h/riscv.hpp ****     static void popSppSpie();
  22:src/../h/riscv.hpp **** 
  23:src/../h/riscv.hpp ****     // read register scause
  24:src/../h/riscv.hpp ****     static uint64 r_scause();
  25:src/../h/riscv.hpp **** 
  26:src/../h/riscv.hpp ****     // write register scause
  27:src/../h/riscv.hpp ****     static void w_scause(uint64 scause);
  28:src/../h/riscv.hpp **** 
  29:src/../h/riscv.hpp ****     // read register sepc
  30:src/../h/riscv.hpp ****     static uint64 r_sepc();
  31:src/../h/riscv.hpp **** 
  32:src/../h/riscv.hpp ****     // write register sepc
  33:src/../h/riscv.hpp ****     static void w_sepc(uint64 sepc);
  34:src/../h/riscv.hpp **** 
  35:src/../h/riscv.hpp ****     // read register stvec
  36:src/../h/riscv.hpp ****     static uint64 r_stvec();
GAS LISTING /tmp/ccOFftWG.s 			page 3


  37:src/../h/riscv.hpp **** 
  38:src/../h/riscv.hpp ****     // write register stvec
  39:src/../h/riscv.hpp ****     static void w_stvec(uint64 stvec);
  40:src/../h/riscv.hpp **** 
  41:src/../h/riscv.hpp ****     // read register stval
  42:src/../h/riscv.hpp ****     static uint64 r_stval();
  43:src/../h/riscv.hpp **** 
  44:src/../h/riscv.hpp ****     // write register stval
  45:src/../h/riscv.hpp ****     static void w_stval(uint64 stval);
  46:src/../h/riscv.hpp **** 
  47:src/../h/riscv.hpp ****     enum BitMaskSip
  48:src/../h/riscv.hpp ****     {
  49:src/../h/riscv.hpp ****         SIP_SSIP = (1 << 1),
  50:src/../h/riscv.hpp ****         SIP_STIP = (1 << 5),
  51:src/../h/riscv.hpp ****         SIP_SEIP = (1 << 9),
  52:src/../h/riscv.hpp ****     };
  53:src/../h/riscv.hpp **** 
  54:src/../h/riscv.hpp ****     // mask set register sip
  55:src/../h/riscv.hpp ****     static void ms_sip(uint64 mask);
  56:src/../h/riscv.hpp **** 
  57:src/../h/riscv.hpp ****     // mask clear register sip
  58:src/../h/riscv.hpp ****     static void mc_sip(uint64 mask);
  59:src/../h/riscv.hpp **** 
  60:src/../h/riscv.hpp ****     // read register sip
  61:src/../h/riscv.hpp ****     static uint64 r_sip();
  62:src/../h/riscv.hpp **** 
  63:src/../h/riscv.hpp ****     // write register sip
  64:src/../h/riscv.hpp ****     static void w_sip(uint64 sip);
  65:src/../h/riscv.hpp **** 
  66:src/../h/riscv.hpp ****     enum BitMaskSstatus
  67:src/../h/riscv.hpp ****     {
  68:src/../h/riscv.hpp ****         SSTATUS_SIE = (1 << 1),
  69:src/../h/riscv.hpp ****         SSTATUS_SPIE = (1 << 5),
  70:src/../h/riscv.hpp ****         SSTATUS_SPP = (1 << 8),
  71:src/../h/riscv.hpp ****     };
  72:src/../h/riscv.hpp **** 
  73:src/../h/riscv.hpp ****     // mask set register sstatus
  74:src/../h/riscv.hpp ****     static void ms_sstatus(uint64 mask);
  75:src/../h/riscv.hpp **** 
  76:src/../h/riscv.hpp ****     // mask clear register sstatus
  77:src/../h/riscv.hpp ****     static void mc_sstatus(uint64 mask);
  78:src/../h/riscv.hpp **** 
  79:src/../h/riscv.hpp ****     // read register sstatus
  80:src/../h/riscv.hpp ****     static uint64 r_sstatus();
  81:src/../h/riscv.hpp **** 
  82:src/../h/riscv.hpp ****     // write register sstatus
  83:src/../h/riscv.hpp ****     static void w_sstatus(uint64 sstatus);
  84:src/../h/riscv.hpp **** 
  85:src/../h/riscv.hpp ****     // supervisor trap
  86:src/../h/riscv.hpp ****     static void supervisorTrap();
  87:src/../h/riscv.hpp **** 
  88:src/../h/riscv.hpp ****     //stvec Vector "table"
  89:src/../h/riscv.hpp ****     static void stvecVectorTable();
  90:src/../h/riscv.hpp **** 
  91:src/../h/riscv.hpp ****     //read a0 register
  92:src/../h/riscv.hpp ****     static uint64 r_a0();
  93:src/../h/riscv.hpp **** 
GAS LISTING /tmp/ccOFftWG.s 			page 4


  94:src/../h/riscv.hpp ****     //write to a0 register
  95:src/../h/riscv.hpp ****     static void w_a0(uint64 writeValue);
  96:src/../h/riscv.hpp **** 
  97:src/../h/riscv.hpp **** private:
  98:src/../h/riscv.hpp **** 
  99:src/../h/riscv.hpp ****     // supervisor trap handler
 100:src/../h/riscv.hpp ****     static void handleSupervisorTrap();
 101:src/../h/riscv.hpp **** 
 102:src/../h/riscv.hpp ****     static void handleTimerInterrupt();
 103:src/../h/riscv.hpp **** 
 104:src/../h/riscv.hpp ****     static void handleConsoleInterrupt();
 105:src/../h/riscv.hpp **** };
 106:src/../h/riscv.hpp **** 
 107:src/../h/riscv.hpp **** 
 108:src/../h/riscv.hpp **** inline uint64 Riscv::r_scause()
 109:src/../h/riscv.hpp **** {
 110:src/../h/riscv.hpp ****     uint64 volatile scause;
  65              		.loc 2 110 5
 111:src/../h/riscv.hpp ****     __asm__ volatile ("csrr %[scause], scause" : [scause] "=r"(scause));
  66              		.loc 2 111 5
  67              		.loc 2 111 72 is_stmt 0
  68              	#APP
  69              	# 111 "src/../h/riscv.hpp" 1
 112              	    return scause;
  70              		csrr a5, scause
  71              	# 0 "" 2
  72              	#NO_APP
  73 003c 233CF4FA 		sd	a5,-72(s0)
  74              		.loc 2 112 5 is_stmt 1
  75              		.loc 2 112 12 is_stmt 0
  76 0040 033784FB 		ld	a4,-72(s0)
  77              	.LVL0:
  78              	.LBE31:
  79              	.LBE30:
  18:src/riscv.cpp ****     if (scause == 0x0000000000000009UL){
  80              		.loc 1 18 5 is_stmt 1
  81              	.LBB32:
  82 0044 93079000 		li	a5,9
  83 0048 630EF702 		beq	a4,a5,.L9
  84              	.LBE32:
  19:src/riscv.cpp **** 
  20:src/riscv.cpp ****         // interrupt: no, cause code: environment call from s code
  21:src/riscv.cpp ****         uint64 sepc = r_sepc() + 4; // ecall vraca na sebe a ne na seldecu funkciju zato pisemo + 4
  22:src/riscv.cpp ****         uint64 sstatus = r_sstatus();
  23:src/riscv.cpp ****         TCB::timeSliceCounter = 0;
  24:src/riscv.cpp ****         TCB::dispatch();
  25:src/riscv.cpp ****         w_sstatus(sstatus);
  26:src/riscv.cpp ****         w_sepc(sepc);
  27:src/riscv.cpp **** 
  28:src/riscv.cpp ****     }else if (scause == 0x8000000000000001UL){
  85              		.loc 1 28 11
  86              	.LBB60:
  87              	.LBB33:
  88 004c 9307F0FF 		li	a5,-1
  89 0050 9397F703 		slli	a5,a5,63
  90 0054 93871700 		addi	a5,a5,1
  91 0058 6304F706 		beq	a4,a5,.L10
GAS LISTING /tmp/ccOFftWG.s 			page 5


  29:src/riscv.cpp **** 
  30:src/riscv.cpp ****         // interrupt: yes, cause code: supervisor software interrupt (timer)
  31:src/riscv.cpp ****         TCB::timeSliceCounter++;
  32:src/riscv.cpp ****         if (TCB::timeSliceCounter >= TCB::running->getTimeSlice()){
  33:src/riscv.cpp ****             uint64 sepc = r_sepc();
  34:src/riscv.cpp ****             uint64 sstatus = r_sstatus();
  35:src/riscv.cpp ****             TCB::timeSliceCounter = 0;
  36:src/riscv.cpp ****             TCB::dispatch();
  37:src/riscv.cpp ****             w_sstatus(sstatus);
  38:src/riscv.cpp ****             w_sepc(sepc);
  39:src/riscv.cpp ****         }
  40:src/riscv.cpp ****         mc_sip(SIP_SSIP);
  41:src/riscv.cpp **** 
  42:src/riscv.cpp ****     } else if (scause == 0x8000000000000009UL){
  92              		.loc 1 42 12
  93 005c 9307F0FF 		li	a5,-1
  94 0060 9397F703 		slli	a5,a5,63
  95 0064 93879700 		addi	a5,a5,9
  96 0068 6302F70C 		beq	a4,a5,.L11
  97              	.LVL1:
  98              	.L3:
  99              	.LBE33:
 100              	.LBE60:
  43:src/riscv.cpp **** 
  44:src/riscv.cpp ****         // interrupt: yes, cause code: supervisor external interrupt (timer)
  45:src/riscv.cpp ****         console_handler();
  46:src/riscv.cpp **** 
  47:src/riscv.cpp ****     } else{
  48:src/riscv.cpp **** 
  49:src/riscv.cpp ****         // unexpected trap cause
  50:src/riscv.cpp ****         // print scause
  51:src/riscv.cpp ****         // print sepc
  52:src/riscv.cpp ****         // print stval
  53:src/riscv.cpp **** 
  54:src/riscv.cpp ****     }
  55:src/riscv.cpp **** 
  56:src/riscv.cpp **** 
  57:src/riscv.cpp **** }
 101              		.loc 1 57 1 is_stmt 0
 102 006c 83308104 		ld	ra,72(sp)
 103              		.cfi_remember_state
 104              		.cfi_restore 1
 105 0070 03340104 		ld	s0,64(sp)
 106              		.cfi_restore 8
 107              		.cfi_def_cfa 2, 80
 108 0074 83348103 		ld	s1,56(sp)
 109              		.cfi_restore 9
 110 0078 03390103 		ld	s2,48(sp)
 111              		.cfi_restore 18
 112 007c 13010105 		addi	sp,sp,80
 113              		.cfi_def_cfa_offset 0
 114 0080 67800000 		jr	ra
 115              	.LVL2:
 116              	.L9:
 117              		.cfi_restore_state
 118              	.LBB61:
 119              	.LBB50:
GAS LISTING /tmp/ccOFftWG.s 			page 6


  21:src/riscv.cpp ****         uint64 sstatus = r_sstatus();
 120              		.loc 1 21 9 is_stmt 1
 121              	.LBB51:
 122              	.LBB52:
 113:src/../h/riscv.hpp **** }
 114:src/../h/riscv.hpp **** 
 115:src/../h/riscv.hpp **** inline void Riscv::w_scause(uint64 scause)
 116:src/../h/riscv.hpp **** {
 117:src/../h/riscv.hpp ****     __asm__ volatile ("csrw scause, %[scause]" : : [scause] "r"(scause));
 118:src/../h/riscv.hpp **** }
 119:src/../h/riscv.hpp **** 
 120:src/../h/riscv.hpp **** inline uint64 Riscv::r_sepc()
 121:src/../h/riscv.hpp **** {
 122:src/../h/riscv.hpp ****     uint64 volatile sepc;
 123              		.loc 2 122 5
 123:src/../h/riscv.hpp ****     __asm__ volatile ("csrr %[sepc], sepc" : [sepc] "=r"(sepc));
 124              		.loc 2 123 5
 125              		.loc 2 123 64 is_stmt 0
 126              	#APP
 127              	# 123 "src/../h/riscv.hpp" 1
 124              	    return sepc;
 128              		csrr a5, sepc
 129              	# 0 "" 2
 130              	#NO_APP
 131 0088 2334F4FC 		sd	a5,-56(s0)
 132              		.loc 2 124 5 is_stmt 1
 133              		.loc 2 124 12 is_stmt 0
 134 008c 833484FC 		ld	s1,-56(s0)
 135              	.LBE52:
 136              	.LBE51:
  21:src/riscv.cpp ****         uint64 sstatus = r_sstatus();
 137              		.loc 1 21 34
 138 0090 93844400 		addi	s1,s1,4
 139              	.LVL3:
  22:src/riscv.cpp ****         TCB::timeSliceCounter = 0;
 140              		.loc 1 22 9 is_stmt 1
 141              	.LBB53:
 142              	.LBB54:
 125:src/../h/riscv.hpp **** }
 126:src/../h/riscv.hpp **** 
 127:src/../h/riscv.hpp **** inline void Riscv::w_sepc(uint64 sepc)
 128:src/../h/riscv.hpp **** {
 129:src/../h/riscv.hpp ****     __asm__ volatile ("csrw sepc, %[sepc]" : : [sepc] "r"(sepc));
 130:src/../h/riscv.hpp **** }
 131:src/../h/riscv.hpp **** 
 132:src/../h/riscv.hpp **** inline uint64 Riscv::r_stvec()
 133:src/../h/riscv.hpp **** {
 134:src/../h/riscv.hpp ****     uint64 volatile stvec;
 135:src/../h/riscv.hpp ****     __asm__ volatile ("csrr %[stvec], stvec" : [stvec] "=r"(stvec));
 136:src/../h/riscv.hpp ****     return stvec;
 137:src/../h/riscv.hpp **** }
 138:src/../h/riscv.hpp **** 
 139:src/../h/riscv.hpp **** inline void Riscv::w_stvec(uint64 stvec)
 140:src/../h/riscv.hpp **** {
 141:src/../h/riscv.hpp ****     __asm__ volatile ("csrw stvec, %[stvec]" : : [stvec] "r"(stvec));
 142:src/../h/riscv.hpp **** }
 143:src/../h/riscv.hpp **** 
GAS LISTING /tmp/ccOFftWG.s 			page 7


 144:src/../h/riscv.hpp **** inline uint64 Riscv::r_stval()
 145:src/../h/riscv.hpp **** {
 146:src/../h/riscv.hpp ****     uint64 volatile stval;
 147:src/../h/riscv.hpp ****     __asm__ volatile ("csrr %[stval], stval" : [stval] "=r"(stval));
 148:src/../h/riscv.hpp ****     return stval;
 149:src/../h/riscv.hpp **** }
 150:src/../h/riscv.hpp **** 
 151:src/../h/riscv.hpp **** inline void Riscv::w_stval(uint64 stval)
 152:src/../h/riscv.hpp **** {
 153:src/../h/riscv.hpp ****     __asm__ volatile ("csrw stval, %[stval]" : : [stval] "r"(stval));
 154:src/../h/riscv.hpp **** }
 155:src/../h/riscv.hpp **** 
 156:src/../h/riscv.hpp **** inline void Riscv::ms_sip(uint64 mask)
 157:src/../h/riscv.hpp **** {
 158:src/../h/riscv.hpp ****     __asm__ volatile ("csrs sip, %[mask]" : : [mask] "r"(mask));
 159:src/../h/riscv.hpp **** }
 160:src/../h/riscv.hpp **** 
 161:src/../h/riscv.hpp **** inline void Riscv::mc_sip(uint64 mask)
 162:src/../h/riscv.hpp **** {
 163:src/../h/riscv.hpp ****     __asm__ volatile ("csrc sip, %[mask]" : : [mask] "r"(mask));
 164:src/../h/riscv.hpp **** }
 165:src/../h/riscv.hpp **** 
 166:src/../h/riscv.hpp **** inline uint64 Riscv::r_sip()
 167:src/../h/riscv.hpp **** {
 168:src/../h/riscv.hpp ****     uint64 volatile sip;
 169:src/../h/riscv.hpp ****     __asm__ volatile ("csrr %[sip], sip" : [sip] "=r"(sip));
 170:src/../h/riscv.hpp ****     return sip;
 171:src/../h/riscv.hpp **** }
 172:src/../h/riscv.hpp **** 
 173:src/../h/riscv.hpp **** inline void Riscv::w_sip(uint64 sip)
 174:src/../h/riscv.hpp **** {
 175:src/../h/riscv.hpp ****     __asm__ volatile ("csrw sip, %[sip]" : : [sip] "r"(sip));
 176:src/../h/riscv.hpp **** }
 177:src/../h/riscv.hpp **** 
 178:src/../h/riscv.hpp **** inline void Riscv::ms_sstatus(uint64 mask)
 179:src/../h/riscv.hpp **** {
 180:src/../h/riscv.hpp ****     __asm__ volatile ("csrs sstatus, %[mask]" : : [mask] "r"(mask));
 181:src/../h/riscv.hpp **** }
 182:src/../h/riscv.hpp **** 
 183:src/../h/riscv.hpp **** inline void Riscv::mc_sstatus(uint64 mask)
 184:src/../h/riscv.hpp **** {
 185:src/../h/riscv.hpp ****     __asm__ volatile ("csrc sstatus, %[mask]" : : [mask] "r"(mask));
 186:src/../h/riscv.hpp **** }
 187:src/../h/riscv.hpp **** 
 188:src/../h/riscv.hpp **** inline uint64 Riscv::r_sstatus()
 189:src/../h/riscv.hpp **** {
 190:src/../h/riscv.hpp ****     uint64 volatile sstatus;
 143              		.loc 2 190 5
 191:src/../h/riscv.hpp ****     __asm__ volatile ("csrr %[sstatus], sstatus" : [sstatus] "=r"(sstatus));
 144              		.loc 2 191 5
 145              		.loc 2 191 76 is_stmt 0
 146              	#APP
 147              	# 191 "src/../h/riscv.hpp" 1
 192              	    return sstatus;
 148              		csrr a5, sstatus
 149              	# 0 "" 2
 150              	#NO_APP
GAS LISTING /tmp/ccOFftWG.s 			page 8


 151 0098 2330F4FC 		sd	a5,-64(s0)
 152              		.loc 2 192 5 is_stmt 1
 153              		.loc 2 192 12 is_stmt 0
 154 009c 033904FC 		ld	s2,-64(s0)
 155              	.LVL4:
 156              	.LBE54:
 157              	.LBE53:
  23:src/riscv.cpp ****         TCB::dispatch();
 158              		.loc 1 23 9 is_stmt 1
  23:src/riscv.cpp ****         TCB::dispatch();
 159              		.loc 1 23 31 is_stmt 0
 160 00a0 97070000 		la	a5,_ZN3TCB16timeSliceCounterE
 160      83B70700 
 161 00a8 23B00700 		sd	zero,0(a5)
  24:src/riscv.cpp ****         w_sstatus(sstatus);
 162              		.loc 1 24 9 is_stmt 1
  24:src/riscv.cpp ****         w_sstatus(sstatus);
 163              		.loc 1 24 22 is_stmt 0
 164 00ac 97000000 		call	_ZN3TCB8dispatchEv@plt
 164      E7800000 
 165              	.LVL5:
  25:src/riscv.cpp ****         w_sepc(sepc);
 166              		.loc 1 25 9 is_stmt 1
 167              	.LBB55:
 168              	.LBB56:
 193:src/../h/riscv.hpp **** }
 194:src/../h/riscv.hpp **** 
 195:src/../h/riscv.hpp **** inline void Riscv::w_sstatus(uint64 sstatus)
 196:src/../h/riscv.hpp **** {
 197:src/../h/riscv.hpp ****     __asm__ volatile ("csrw sstatus, %[sstatus]" : : [sstatus] "r"(sstatus));
 169              		.loc 2 197 5
 170              		.loc 2 197 77 is_stmt 0
 171              	#APP
 172              	# 197 "src/../h/riscv.hpp" 1
 198              	}
 173              		csrw sstatus, s2
 174              	# 0 "" 2
 175              	.LVL6:
 176              	#NO_APP
 177              	.LBE56:
 178              	.LBE55:
  26:src/riscv.cpp **** 
 179              		.loc 1 26 9 is_stmt 1
 180              	.LBB57:
 181              	.LBB58:
 129:src/../h/riscv.hpp **** }
 182              		.loc 2 129 5
 129:src/../h/riscv.hpp **** }
 183              		.loc 2 129 65 is_stmt 0
 184              	#APP
 185              	# 129 "src/../h/riscv.hpp" 1
 130:src/../h/riscv.hpp **** 
 186              		csrw sepc, s1
 187              	# 0 "" 2
 188              		.loc 2 130 1
 189              	#NO_APP
 190 00bc 6FF01FFB 		j	.L3
GAS LISTING /tmp/ccOFftWG.s 			page 9


 191              	.LVL7:
 192              	.L10:
 193              	.LBE58:
 194              	.LBE57:
 195              	.LBE50:
 196              	.LBB59:
 197              	.LBB34:
  31:src/riscv.cpp ****         if (TCB::timeSliceCounter >= TCB::running->getTimeSlice()){
 198              		.loc 1 31 9 is_stmt 1
  31:src/riscv.cpp ****         if (TCB::timeSliceCounter >= TCB::running->getTimeSlice()){
 199              		.loc 1 31 30 is_stmt 0
 200 00c0 17070000 		la	a4,_ZN3TCB16timeSliceCounterE
 200      03370700 
 201              	.LVL8:
 202 00c8 83370700 		ld	a5,0(a4)
 203 00cc 93871700 		addi	a5,a5,1
 204 00d0 2330F700 		sd	a5,0(a4)
  32:src/riscv.cpp ****             uint64 sepc = r_sepc();
 205              		.loc 1 32 9 is_stmt 1
 206              	.LBB35:
  32:src/riscv.cpp ****             uint64 sepc = r_sepc();
 207              		.loc 1 32 64 is_stmt 0
 208 00d4 17070000 		la	a4,_ZN3TCB7runningE
 208      03370700 
 209 00dc 03370700 		ld	a4,0(a4)
 210              	.LVL9:
 211              	.LBB36:
 212              	.LBB37:
 213              		.file 3 "src/../h/tcb.hpp"
   1:src/../h/tcb.hpp **** //
   2:src/../h/tcb.hpp **** // Created by os on 5/22/24.
   3:src/../h/tcb.hpp **** //
   4:src/../h/tcb.hpp **** 
   5:src/../h/tcb.hpp **** #ifndef PROJECT_BASE_TCB_HPP
   6:src/../h/tcb.hpp **** #define PROJECT_BASE_TCB_HPP
   7:src/../h/tcb.hpp **** 
   8:src/../h/tcb.hpp **** #include "../lib/hw.h"
   9:src/../h/tcb.hpp **** #include "scheduler.hpp"
  10:src/../h/tcb.hpp **** 
  11:src/../h/tcb.hpp **** 
  12:src/../h/tcb.hpp **** class TCB{
  13:src/../h/tcb.hpp **** public:
  14:src/../h/tcb.hpp ****     ~TCB(){ delete [] stack; }
  15:src/../h/tcb.hpp **** 
  16:src/../h/tcb.hpp ****     bool isFinished() const {return finished; }
  17:src/../h/tcb.hpp **** 
  18:src/../h/tcb.hpp ****     void setFinished(bool finished) { TCB::finished = finished;}
  19:src/../h/tcb.hpp **** 
  20:src/../h/tcb.hpp ****     uint64 getTimeSlice() const{
  21:src/../h/tcb.hpp ****         return timeSlice;
 214              		.loc 3 21 9 is_stmt 1
 215              		.loc 3 21 16 is_stmt 0
 216 00e0 03370702 		ld	a4,32(a4)
 217              	.LVL10:
 218              	.LBE37:
 219              	.LBE36:
  32:src/riscv.cpp ****             uint64 sepc = r_sepc();
GAS LISTING /tmp/ccOFftWG.s 			page 10


 220              		.loc 1 32 9
 221 00e4 63F8E700 		bgeu	a5,a4,.L12
 222              	.L7:
 223              	.LBE35:
  40:src/riscv.cpp **** 
 224              		.loc 1 40 9 is_stmt 1
 225              	.LVL11:
 226              	.LBB47:
 227              	.LBB48:
 163:src/../h/riscv.hpp **** }
 228              		.loc 2 163 5
 163:src/../h/riscv.hpp **** }
 229              		.loc 2 163 64 is_stmt 0
 230 00e8 93072000 		li	a5,2
 231              	#APP
 232              	# 163 "src/../h/riscv.hpp" 1
 164:src/../h/riscv.hpp **** 
 233              		csrc sip, a5
 234              	# 0 "" 2
 235              		.loc 2 164 1
 236              	#NO_APP
 237 00f0 6FF0DFF7 		j	.L3
 238              	.LVL12:
 239              	.L12:
 240              	.LBE48:
 241              	.LBE47:
 242              	.LBB49:
 243              	.LBB38:
  33:src/riscv.cpp ****             uint64 sstatus = r_sstatus();
 244              		.loc 1 33 13 is_stmt 1
 245              	.LBB39:
 246              	.LBB40:
 122:src/../h/riscv.hpp ****     __asm__ volatile ("csrr %[sepc], sepc" : [sepc] "=r"(sepc));
 247              		.loc 2 122 5
 123:src/../h/riscv.hpp ****     return sepc;
 248              		.loc 2 123 5
 123:src/../h/riscv.hpp ****     return sepc;
 249              		.loc 2 123 64 is_stmt 0
 250              	#APP
 251              	# 123 "src/../h/riscv.hpp" 1
 252              		csrr a5, sepc
 253              	# 0 "" 2
 254              	#NO_APP
 255 00f8 233CF4FC 		sd	a5,-40(s0)
 124:src/../h/riscv.hpp **** }
 256              		.loc 2 124 5 is_stmt 1
 124:src/../h/riscv.hpp **** }
 257              		.loc 2 124 12 is_stmt 0
 258 00fc 833484FD 		ld	s1,-40(s0)
 259              	.LVL13:
 260              	.LBE40:
 261              	.LBE39:
  34:src/riscv.cpp ****             TCB::timeSliceCounter = 0;
 262              		.loc 1 34 13 is_stmt 1
 263              	.LBB41:
 264              	.LBB42:
 190:src/../h/riscv.hpp ****     __asm__ volatile ("csrr %[sstatus], sstatus" : [sstatus] "=r"(sstatus));
GAS LISTING /tmp/ccOFftWG.s 			page 11


 265              		.loc 2 190 5
 191:src/../h/riscv.hpp ****     return sstatus;
 266              		.loc 2 191 5
 191:src/../h/riscv.hpp ****     return sstatus;
 267              		.loc 2 191 76 is_stmt 0
 268              	#APP
 269              	# 191 "src/../h/riscv.hpp" 1
 270              		csrr a5, sstatus
 271              	# 0 "" 2
 272              	#NO_APP
 273 0104 2338F4FC 		sd	a5,-48(s0)
 192:src/../h/riscv.hpp **** }
 274              		.loc 2 192 5 is_stmt 1
 192:src/../h/riscv.hpp **** }
 275              		.loc 2 192 12 is_stmt 0
 276 0108 033904FD 		ld	s2,-48(s0)
 277              	.LVL14:
 278              	.LBE42:
 279              	.LBE41:
  35:src/riscv.cpp ****             TCB::dispatch();
 280              		.loc 1 35 13 is_stmt 1
  35:src/riscv.cpp ****             TCB::dispatch();
 281              		.loc 1 35 35 is_stmt 0
 282 010c 97070000 		la	a5,_ZN3TCB16timeSliceCounterE
 282      83B70700 
 283 0114 23B00700 		sd	zero,0(a5)
  36:src/riscv.cpp ****             w_sstatus(sstatus);
 284              		.loc 1 36 13 is_stmt 1
  36:src/riscv.cpp ****             w_sstatus(sstatus);
 285              		.loc 1 36 26 is_stmt 0
 286 0118 97000000 		call	_ZN3TCB8dispatchEv@plt
 286      E7800000 
 287              	.LVL15:
  37:src/riscv.cpp ****             w_sepc(sepc);
 288              		.loc 1 37 13 is_stmt 1
 289              	.LBB43:
 290              	.LBB44:
 197:src/../h/riscv.hpp **** }
 291              		.loc 2 197 5
 197:src/../h/riscv.hpp **** }
 292              		.loc 2 197 77 is_stmt 0
 293              	#APP
 294              	# 197 "src/../h/riscv.hpp" 1
 295              		csrw sstatus, s2
 296              	# 0 "" 2
 297              	.LVL16:
 298              	#NO_APP
 299              	.LBE44:
 300              	.LBE43:
  38:src/riscv.cpp ****         }
 301              		.loc 1 38 13 is_stmt 1
 302              	.LBB45:
 303              	.LBB46:
 129:src/../h/riscv.hpp **** }
 304              		.loc 2 129 5
 129:src/../h/riscv.hpp **** }
 305              		.loc 2 129 65 is_stmt 0
GAS LISTING /tmp/ccOFftWG.s 			page 12


 306              	#APP
 307              	# 129 "src/../h/riscv.hpp" 1
 130:src/../h/riscv.hpp **** 
 308              		csrw sepc, s1
 309              	# 0 "" 2
 310              		.loc 2 130 1
 311              	#NO_APP
 312 0128 6FF01FFC 		j	.L7
 313              	.LVL17:
 314              	.L11:
 315              	.LBE46:
 316              	.LBE45:
 317              	.LBE38:
 318              	.LBE49:
 319              	.LBE34:
  45:src/riscv.cpp **** 
 320              		.loc 1 45 9 is_stmt 1
  45:src/riscv.cpp **** 
 321              		.loc 1 45 24 is_stmt 0
 322 012c 97000000 		call	console_handler@plt
 322      E7800000 
 323              	.LVL18:
 324              	.LBE59:
 325              	.LBE61:
 326              		.loc 1 57 1
 327 0134 6FF09FF3 		j	.L3
 328              		.cfi_endproc
 329              	.LFE38:
 331              	.Letext0:
 332              		.file 4 "src/../h/../lib/hw.h"
 333              		.file 5 "src/../lib/console.h"
GAS LISTING /tmp/ccOFftWG.s 			page 13


DEFINED SYMBOLS
                            *ABS*:0000000000000000 riscv.cpp
     /tmp/ccOFftWG.s:9      .text:0000000000000000 _ZN5Riscv10popSppSpieEv
     /tmp/ccOFftWG.s:13     .text:0000000000000000 .L0 
     /tmp/ccOFftWG.s:14     .text:0000000000000000 .L0 
     /tmp/ccOFftWG.s:15     .text:0000000000000004 .L0 
     /tmp/ccOFftWG.s:17     .text:0000000000000008 .L0 
     /tmp/ccOFftWG.s:19     .text:000000000000000c .L0 
     /tmp/ccOFftWG.s:21     .text:000000000000000c .L0 
       src/riscv.cpp:11     .text:000000000000000c .L0 
     /tmp/ccOFftWG.s:27     .text:0000000000000010 .L0 
       src/riscv.cpp:12     .text:0000000000000010 .L0 
     /tmp/ccOFftWG.s:33     .text:0000000000000014 .L0 
     /tmp/ccOFftWG.s:34     .text:0000000000000018 .L0 
     /tmp/ccOFftWG.s:35     .text:0000000000000018 .L0 
     /tmp/ccOFftWG.s:37     .text:000000000000001c .L0 
     /tmp/ccOFftWG.s:39     .text:0000000000000020 .L0 
     /tmp/ccOFftWG.s:45     .text:0000000000000020 _ZN5Riscv20handleSupervisorTrapEv
     /tmp/ccOFftWG.s:48     .text:0000000000000020 .L0 
     /tmp/ccOFftWG.s:49     .text:0000000000000020 .L0 
     /tmp/ccOFftWG.s:50     .text:0000000000000024 .L0 
     /tmp/ccOFftWG.s:55     .text:0000000000000034 .L0 
     /tmp/ccOFftWG.s:56     .text:0000000000000034 .L0 
     /tmp/ccOFftWG.s:57     .text:0000000000000034 .L0 
     /tmp/ccOFftWG.s:58     .text:0000000000000034 .L0 
     /tmp/ccOFftWG.s:60     .text:0000000000000038 .L0 
     /tmp/ccOFftWG.s:65     .text:0000000000000038 .L0 
     /tmp/ccOFftWG.s:66     .text:0000000000000038 .L0 
     /tmp/ccOFftWG.s:67     .text:0000000000000038 .L0 
  src/../h/riscv.hpp:111    .text:0000000000000038 .L0 
     /tmp/ccOFftWG.s:75     .text:0000000000000040 .L0 
     /tmp/ccOFftWG.s:76     .text:0000000000000040 .L0 
     /tmp/ccOFftWG.s:82     .text:0000000000000044 .L0 
     /tmp/ccOFftWG.s:88     .text:000000000000004c .L0 
     /tmp/ccOFftWG.s:93     .text:000000000000005c .L0 
     /tmp/ccOFftWG.s:102    .text:000000000000006c .L0 
     /tmp/ccOFftWG.s:103    .text:0000000000000070 .L0 
     /tmp/ccOFftWG.s:104    .text:0000000000000070 .L0 
     /tmp/ccOFftWG.s:106    .text:0000000000000074 .L0 
     /tmp/ccOFftWG.s:107    .text:0000000000000074 .L0 
     /tmp/ccOFftWG.s:109    .text:0000000000000078 .L0 
     /tmp/ccOFftWG.s:111    .text:000000000000007c .L0 
     /tmp/ccOFftWG.s:113    .text:0000000000000080 .L0 
     /tmp/ccOFftWG.s:117    .text:0000000000000084 .L0 
     /tmp/ccOFftWG.s:123    .text:0000000000000084 .L0 
     /tmp/ccOFftWG.s:124    .text:0000000000000084 .L0 
     /tmp/ccOFftWG.s:125    .text:0000000000000084 .L0 
  src/../h/riscv.hpp:123    .text:0000000000000084 .L0 
     /tmp/ccOFftWG.s:133    .text:000000000000008c .L0 
     /tmp/ccOFftWG.s:134    .text:000000000000008c .L0 
     /tmp/ccOFftWG.s:138    .text:0000000000000090 .L0 
     /tmp/ccOFftWG.s:143    .text:0000000000000094 .L0 
     /tmp/ccOFftWG.s:144    .text:0000000000000094 .L0 
     /tmp/ccOFftWG.s:145    .text:0000000000000094 .L0 
  src/../h/riscv.hpp:191    .text:0000000000000094 .L0 
     /tmp/ccOFftWG.s:153    .text:000000000000009c .L0 
     /tmp/ccOFftWG.s:154    .text:000000000000009c .L0 
GAS LISTING /tmp/ccOFftWG.s 			page 14


     /tmp/ccOFftWG.s:159    .text:00000000000000a0 .L0 
     /tmp/ccOFftWG.s:160    .text:00000000000000a0 .L0 
     /tmp/ccOFftWG.s:163    .text:00000000000000ac .L0 
     /tmp/ccOFftWG.s:164    .text:00000000000000ac .L0 
     /tmp/ccOFftWG.s:169    .text:00000000000000b4 .L0 
     /tmp/ccOFftWG.s:170    .text:00000000000000b4 .L0 
  src/../h/riscv.hpp:197    .text:00000000000000b4 .L0 
     /tmp/ccOFftWG.s:182    .text:00000000000000b8 .L0 
     /tmp/ccOFftWG.s:183    .text:00000000000000b8 .L0 
  src/../h/riscv.hpp:129    .text:00000000000000b8 .L0 
     /tmp/ccOFftWG.s:190    .text:00000000000000bc .L0 
     /tmp/ccOFftWG.s:199    .text:00000000000000c0 .L0 
     /tmp/ccOFftWG.s:200    .text:00000000000000c0 .L0 
     /tmp/ccOFftWG.s:207    .text:00000000000000d4 .L0 
     /tmp/ccOFftWG.s:208    .text:00000000000000d4 .L0 
     /tmp/ccOFftWG.s:215    .text:00000000000000e0 .L0 
     /tmp/ccOFftWG.s:216    .text:00000000000000e0 .L0 
     /tmp/ccOFftWG.s:221    .text:00000000000000e4 .L0 
     /tmp/ccOFftWG.s:228    .text:00000000000000e8 .L0 
     /tmp/ccOFftWG.s:229    .text:00000000000000e8 .L0 
     /tmp/ccOFftWG.s:230    .text:00000000000000e8 .L0 
     /tmp/ccOFftWG.s:237    .text:00000000000000f0 .L0 
     /tmp/ccOFftWG.s:247    .text:00000000000000f4 .L0 
     /tmp/ccOFftWG.s:248    .text:00000000000000f4 .L0 
     /tmp/ccOFftWG.s:249    .text:00000000000000f4 .L0 
  src/../h/riscv.hpp:123    .text:00000000000000f4 .L0 
     /tmp/ccOFftWG.s:257    .text:00000000000000fc .L0 
     /tmp/ccOFftWG.s:258    .text:00000000000000fc .L0 
     /tmp/ccOFftWG.s:265    .text:0000000000000100 .L0 
     /tmp/ccOFftWG.s:266    .text:0000000000000100 .L0 
     /tmp/ccOFftWG.s:267    .text:0000000000000100 .L0 
  src/../h/riscv.hpp:191    .text:0000000000000100 .L0 
     /tmp/ccOFftWG.s:275    .text:0000000000000108 .L0 
     /tmp/ccOFftWG.s:276    .text:0000000000000108 .L0 
     /tmp/ccOFftWG.s:281    .text:000000000000010c .L0 
     /tmp/ccOFftWG.s:282    .text:000000000000010c .L0 
     /tmp/ccOFftWG.s:285    .text:0000000000000118 .L0 
     /tmp/ccOFftWG.s:286    .text:0000000000000118 .L0 
     /tmp/ccOFftWG.s:291    .text:0000000000000120 .L0 
     /tmp/ccOFftWG.s:292    .text:0000000000000120 .L0 
  src/../h/riscv.hpp:197    .text:0000000000000120 .L0 
     /tmp/ccOFftWG.s:304    .text:0000000000000124 .L0 
     /tmp/ccOFftWG.s:305    .text:0000000000000124 .L0 
  src/../h/riscv.hpp:129    .text:0000000000000124 .L0 
     /tmp/ccOFftWG.s:312    .text:0000000000000128 .L0 
     /tmp/ccOFftWG.s:321    .text:000000000000012c .L0 
     /tmp/ccOFftWG.s:322    .text:000000000000012c .L0 
     /tmp/ccOFftWG.s:327    .text:0000000000000134 .L0 
     /tmp/ccOFftWG.s:328    .text:0000000000000138 .L0 
     /tmp/ccOFftWG.s:334    .text:0000000000000138 .L0 
     /tmp/ccOFftWG.s:160    .text:00000000000000a0 .L0 
     /tmp/ccOFftWG.s:200    .text:00000000000000c0 .L0 
     /tmp/ccOFftWG.s:208    .text:00000000000000d4 .L0 
     /tmp/ccOFftWG.s:282    .text:000000000000010c .L0 
     /tmp/ccOFftWG.s:116    .text:0000000000000084 .L9
     /tmp/ccOFftWG.s:192    .text:00000000000000c0 .L10
     /tmp/ccOFftWG.s:314    .text:000000000000012c .L11
GAS LISTING /tmp/ccOFftWG.s 			page 15


     /tmp/ccOFftWG.s:98     .text:000000000000006c .L3
     /tmp/ccOFftWG.s:239    .text:00000000000000f4 .L12
     /tmp/ccOFftWG.s:222    .text:00000000000000e8 .L7
     /tmp/ccOFftWG.s:1266   .debug_abbrev:0000000000000000 .Ldebug_abbrev0
     /tmp/ccOFftWG.s:2235   .debug_str:00000000000001cf .LASF101
     /tmp/ccOFftWG.s:2323   .debug_str:000000000000051c .LASF102
     /tmp/ccOFftWG.s:2239   .debug_str:00000000000002ac .LASF103
     /tmp/ccOFftWG.s:5      .text:0000000000000000 .Ltext0
     /tmp/ccOFftWG.s:331    .text:0000000000000138 .Letext0
     /tmp/ccOFftWG.s:2175   .debug_line:0000000000000000 .Ldebug_line0
     /tmp/ccOFftWG.s:2299   .debug_str:0000000000000495 .LASF0
     /tmp/ccOFftWG.s:2317   .debug_str:00000000000004e1 .LASF1
     /tmp/ccOFftWG.s:2287   .debug_str:000000000000043d .LASF2
     /tmp/ccOFftWG.s:2261   .debug_str:000000000000037d .LASF4
     /tmp/ccOFftWG.s:2347   .debug_str:00000000000005d1 .LASF3
     /tmp/ccOFftWG.s:2199   .debug_str:00000000000000a2 .LASF5
     /tmp/ccOFftWG.s:2321   .debug_str:0000000000000509 .LASF6
     /tmp/ccOFftWG.s:2297   .debug_str:0000000000000482 .LASF7
     /tmp/ccOFftWG.s:2377   .debug_str:00000000000006ae .LASF8
     /tmp/ccOFftWG.s:2249   .debug_str:0000000000000302 .LASF9
     /tmp/ccOFftWG.s:2329   .debug_str:0000000000000557 .LASF10
     /tmp/ccOFftWG.s:2373   .debug_str:0000000000000681 .LASF11
     /tmp/ccOFftWG.s:2203   .debug_str:00000000000000ae .LASF12
     /tmp/ccOFftWG.s:2181   .debug_str:0000000000000022 .LASF13
     /tmp/ccOFftWG.s:2211   .debug_str:00000000000000f8 .LASF14
     /tmp/ccOFftWG.s:2341   .debug_str:000000000000059d .LASF15
     /tmp/ccOFftWG.s:2215   .debug_str:0000000000000111 .LASF16
     /tmp/ccOFftWG.s:2313   .debug_str:00000000000004d0 .LASF72
     /tmp/ccOFftWG.s:2273   .debug_str:00000000000003c5 .LASF104
     /tmp/ccOFftWG.s:2359   .debug_str:0000000000000632 .LASF17
     /tmp/ccOFftWG.s:2311   .debug_str:00000000000004c7 .LASF18
     /tmp/ccOFftWG.s:2267   .debug_str:0000000000000392 .LASF19
     /tmp/ccOFftWG.s:2195   .debug_str:000000000000007b .LASF20
     /tmp/ccOFftWG.s:2227   .debug_str:000000000000017a .LASF22
     /tmp/ccOFftWG.s:2361   .debug_str:000000000000063b .LASF21
     /tmp/ccOFftWG.s:2179   .debug_str:0000000000000008 .LASF23
     /tmp/ccOFftWG.s:2339   .debug_str:0000000000000592 .LASF24
     /tmp/ccOFftWG.s:2393   .debug_str:0000000000000725 .LASF25
     /tmp/ccOFftWG.s:2183   .debug_str:0000000000000032 .LASF26
     /tmp/ccOFftWG.s:2231   .debug_str:00000000000001a6 .LASF28
     /tmp/ccOFftWG.s:2225   .debug_str:0000000000000171 .LASF30
     /tmp/ccOFftWG.s:2223   .debug_str:000000000000015c .LASF32
     /tmp/ccOFftWG.s:2351   .debug_str:00000000000005f4 .LASF27
     /tmp/ccOFftWG.s:2331   .debug_str:0000000000000566 .LASF29
     /tmp/ccOFftWG.s:2369   .debug_str:0000000000000672 .LASF31
     /tmp/ccOFftWG.s:2363   .debug_str:0000000000000648 .LASF33
     /tmp/ccOFftWG.s:2243   .debug_str:00000000000002dd .LASF34
     /tmp/ccOFftWG.s:2217   .debug_str:0000000000000127 .LASF35
     /tmp/ccOFftWG.s:2177   .debug_str:0000000000000000 .LASF36
     /tmp/ccOFftWG.s:2253   .debug_str:0000000000000326 .LASF37
     /tmp/ccOFftWG.s:2371   .debug_str:0000000000000679 .LASF38
     /tmp/ccOFftWG.s:2205   .debug_str:00000000000000be .LASF39
     /tmp/ccOFftWG.s:2397   .debug_str:0000000000000748 .LASF40
     /tmp/ccOFftWG.s:2233   .debug_str:00000000000001bb .LASF41
     /tmp/ccOFftWG.s:2301   .debug_str:00000000000004a2 .LASF42
     /tmp/ccOFftWG.s:2389   .debug_str:000000000000070d .LASF43
     /tmp/ccOFftWG.s:2193   .debug_str:0000000000000074 .LASF44
GAS LISTING /tmp/ccOFftWG.s 			page 16


     /tmp/ccOFftWG.s:2241   .debug_str:00000000000002ca .LASF45
     /tmp/ccOFftWG.s:2245   .debug_str:00000000000002e5 .LASF46
     /tmp/ccOFftWG.s:2367   .debug_str:0000000000000660 .LASF47
     /tmp/ccOFftWG.s:2191   .debug_str:000000000000006e .LASF48
     /tmp/ccOFftWG.s:2403   .debug_str:000000000000076c .LASF49
     /tmp/ccOFftWG.s:2395   .debug_str:000000000000073d .LASF50
     /tmp/ccOFftWG.s:2345   .debug_str:00000000000005b9 .LASF51
     /tmp/ccOFftWG.s:2315   .debug_str:00000000000004d6 .LASF52
     /tmp/ccOFftWG.s:2277   .debug_str:00000000000003db .LASF53
     /tmp/ccOFftWG.s:2209   .debug_str:00000000000000ee .LASF54
     /tmp/ccOFftWG.s:2257   .debug_str:000000000000033f .LASF55
     /tmp/ccOFftWG.s:2291   .debug_str:0000000000000457 .LASF56
     /tmp/ccOFftWG.s:2251   .debug_str:0000000000000310 .LASF57
     /tmp/ccOFftWG.s:2353   .debug_str:00000000000005fb .LASF58
     /tmp/ccOFftWG.s:2207   .debug_str:00000000000000d2 .LASF59
     /tmp/ccOFftWG.s:2219   .debug_str:000000000000013b .LASF60
     /tmp/ccOFftWG.s:2375   .debug_str:0000000000000690 .LASF61
     /tmp/ccOFftWG.s:2365   .debug_str:000000000000065b .LASF62
     /tmp/ccOFftWG.s:2229   .debug_str:0000000000000195 .LASF63
     /tmp/ccOFftWG.s:2201   .debug_str:00000000000000a9 .LASF64
     /tmp/ccOFftWG.s:2295   .debug_str:0000000000000471 .LASF65
     /tmp/ccOFftWG.s:2379   .debug_str:00000000000006be .LASF66
     /tmp/ccOFftWG.s:2271   .debug_str:00000000000003a3 .LASF68
     /tmp/ccOFftWG.s:2319   .debug_str:00000000000004f4 .LASF67
     /tmp/ccOFftWG.s:2327   .debug_str:0000000000000535 .LASF69
     /tmp/ccOFftWG.s:2357   .debug_str:000000000000061b .LASF70
     /tmp/ccOFftWG.s:2189   .debug_str:000000000000004a .LASF71
     /tmp/ccOFftWG.s:2187   .debug_str:0000000000000042 .LASF105
     /tmp/ccOFftWG.s:2255   .debug_str:000000000000033a .LASF73
     /tmp/ccOFftWG.s:2333   .debug_str:0000000000000579 .LASF75
     /tmp/ccOFftWG.s:2325   .debug_str:000000000000052a .LASF77
     /tmp/ccOFftWG.s:2247   .debug_str:00000000000002eb .LASF79
     /tmp/ccOFftWG.s:2289   .debug_str:000000000000044b .LASF74
     /tmp/ccOFftWG.s:2399   .debug_str:0000000000000750 .LASF76
     /tmp/ccOFftWG.s:2281   .debug_str:000000000000040f .LASF78
     /tmp/ccOFftWG.s:2197   .debug_str:0000000000000089 .LASF80
     /tmp/ccOFftWG.s:2213   .debug_str:0000000000000104 .LASF81
     /tmp/ccOFftWG.s:2279   .debug_str:00000000000003f3 .LASF82
     /tmp/ccOFftWG.s:2337   .debug_str:000000000000058d .LASF106
     /tmp/ccOFftWG.s:2343   .debug_str:00000000000005b3 .LASF83
     /tmp/ccOFftWG.s:2293   .debug_str:0000000000000461 .LASF84
     /tmp/ccOFftWG.s:2387   .debug_str:0000000000000705 .LASF107
     /tmp/ccOFftWG.s:2355   .debug_str:000000000000060a .LASF108
     /tmp/ccOFftWG.s:2265   .debug_str:000000000000038d .LASF85
     /tmp/ccOFftWG.s:2305   .debug_str:00000000000004b2 .LASF86
     /tmp/ccOFftWG.s:2269   .debug_str:000000000000039b .LASF87
     /tmp/ccOFftWG.s:2309   .debug_str:00000000000004bd .LASF88
     /tmp/ccOFftWG.s:2263   .debug_str:0000000000000384 .LASF89
     /tmp/ccOFftWG.s:2285   .debug_str:000000000000042f .LASF90
     /tmp/ccOFftWG.s:2383   .debug_str:00000000000006e1 .LASF91
     /tmp/ccOFftWG.s:2381   .debug_str:00000000000006d3 .LASF109
     /tmp/ccOFftWG.s:2259   .debug_str:0000000000000355 .LASF110
     /tmp/ccOFftWG.s:2303   .debug_str:00000000000004a9 .LASF92
     /tmp/ccOFftWG.s:2283   .debug_str:000000000000041c .LASF93
     /tmp/ccOFftWG.s:2349   .debug_str:00000000000005e3 .LASF111
     /tmp/ccOFftWG.s:2275   .debug_str:00000000000003d0 .LASF94
     /tmp/ccOFftWG.s:2385   .debug_str:00000000000006fa .LASF95
GAS LISTING /tmp/ccOFftWG.s 			page 17


     /tmp/ccOFftWG.s:2237   .debug_str:00000000000002a7 .LASF96
     /tmp/ccOFftWG.s:46     .text:0000000000000020 .LFB38
     /tmp/ccOFftWG.s:329    .text:0000000000000138 .LFE38
     /tmp/ccOFftWG.s:2185   .debug_str:000000000000003b .LASF97
     /tmp/ccOFftWG.s:2072   .debug_loc:0000000000000000 .LLST0
     /tmp/ccOFftWG.s:119    .text:0000000000000084 .LBB50
     /tmp/ccOFftWG.s:195    .text:00000000000000c0 .LBE50
     /tmp/ccOFftWG.s:2307   .debug_str:00000000000004b8 .LASF98
     /tmp/ccOFftWG.s:2091   .debug_loc:000000000000005c .LLST7
     /tmp/ccOFftWG.s:2335   .debug_str:0000000000000585 .LASF99
     /tmp/ccOFftWG.s:2098   .debug_loc:000000000000007f .LLST8
     /tmp/ccOFftWG.s:121    .text:0000000000000084 .LBB51
     /tmp/ccOFftWG.s:136    .text:0000000000000090 .LBE51
     /tmp/ccOFftWG.s:141    .text:0000000000000094 .LBB53
     /tmp/ccOFftWG.s:157    .text:00000000000000a0 .LBE53
     /tmp/ccOFftWG.s:167    .text:00000000000000b4 .LBB55
     /tmp/ccOFftWG.s:178    .text:00000000000000b8 .LBE55
     /tmp/ccOFftWG.s:2105   .debug_loc:00000000000000a2 .LLST9
     /tmp/ccOFftWG.s:180    .text:00000000000000b8 .LBB57
     /tmp/ccOFftWG.s:194    .text:00000000000000c0 .LBE57
     /tmp/ccOFftWG.s:2112   .debug_loc:00000000000000c5 .LLST10
     /tmp/ccOFftWG.s:165    .text:00000000000000b4 .LVL5
     /tmp/ccOFftWG.s:243    .text:00000000000000f4 .LBB38
     /tmp/ccOFftWG.s:317    .text:000000000000012c .LBE38
     /tmp/ccOFftWG.s:2119   .debug_loc:00000000000000e8 .LLST2
     /tmp/ccOFftWG.s:2126   .debug_loc:000000000000010b .LLST3
     /tmp/ccOFftWG.s:245    .text:00000000000000f4 .LBB39
     /tmp/ccOFftWG.s:261    .text:0000000000000100 .LBE39
     /tmp/ccOFftWG.s:263    .text:0000000000000100 .LBB41
     /tmp/ccOFftWG.s:279    .text:000000000000010c .LBE41
     /tmp/ccOFftWG.s:289    .text:0000000000000120 .LBB43
     /tmp/ccOFftWG.s:300    .text:0000000000000124 .LBE43
     /tmp/ccOFftWG.s:2133   .debug_loc:000000000000012e .LLST4
     /tmp/ccOFftWG.s:302    .text:0000000000000124 .LBB45
     /tmp/ccOFftWG.s:316    .text:000000000000012c .LBE45
     /tmp/ccOFftWG.s:2140   .debug_loc:0000000000000151 .LLST5
     /tmp/ccOFftWG.s:287    .text:0000000000000120 .LVL15
     /tmp/ccOFftWG.s:62     .text:0000000000000038 .LBB30
     /tmp/ccOFftWG.s:79     .text:0000000000000044 .LBE30
     /tmp/ccOFftWG.s:211    .text:00000000000000e0 .LBB36
     /tmp/ccOFftWG.s:219    .text:00000000000000e4 .LBE36
     /tmp/ccOFftWG.s:2147   .debug_loc:0000000000000174 .LLST1
     /tmp/ccOFftWG.s:226    .text:00000000000000e8 .LBB47
     /tmp/ccOFftWG.s:241    .text:00000000000000f4 .LBE47
     /tmp/ccOFftWG.s:2154   .debug_loc:0000000000000197 .LLST6
     /tmp/ccOFftWG.s:323    .text:0000000000000134 .LVL18
     /tmp/ccOFftWG.s:10     .text:0000000000000000 .LFB37
     /tmp/ccOFftWG.s:40     .text:0000000000000020 .LFE37
     /tmp/ccOFftWG.s:2391   .debug_str:0000000000000720 .LASF112
     /tmp/ccOFftWG.s:2401   .debug_str:0000000000000767 .LASF100
     /tmp/ccOFftWG.s:2221   .debug_str:000000000000014c .LASF113
     /tmp/ccOFftWG.s:77     .text:0000000000000044 .LVL0
     /tmp/ccOFftWG.s:97     .text:000000000000006c .LVL1
     /tmp/ccOFftWG.s:115    .text:0000000000000084 .LVL2
     /tmp/ccOFftWG.s:191    .text:00000000000000c0 .LVL7
     /tmp/ccOFftWG.s:201    .text:00000000000000c8 .LVL8
     /tmp/ccOFftWG.s:313    .text:000000000000012c .LVL17
GAS LISTING /tmp/ccOFftWG.s 			page 18


     /tmp/ccOFftWG.s:139    .text:0000000000000094 .LVL3
     /tmp/ccOFftWG.s:155    .text:00000000000000a0 .LVL4
     /tmp/ccOFftWG.s:175    .text:00000000000000b8 .LVL6
     /tmp/ccOFftWG.s:259    .text:0000000000000100 .LVL13
     /tmp/ccOFftWG.s:277    .text:000000000000010c .LVL14
     /tmp/ccOFftWG.s:297    .text:0000000000000124 .LVL16
     /tmp/ccOFftWG.s:210    .text:00000000000000e0 .LVL9
     /tmp/ccOFftWG.s:217    .text:00000000000000e4 .LVL10
     /tmp/ccOFftWG.s:225    .text:00000000000000e8 .LVL11
     /tmp/ccOFftWG.s:238    .text:00000000000000f4 .LVL12
     /tmp/ccOFftWG.s:335    .debug_info:0000000000000000 .Ldebug_info0

UNDEFINED SYMBOLS
_ZN3TCB16timeSliceCounterE
_ZN3TCB8dispatchEv
_ZN3TCB7runningE
console_handler
