GAS LISTING /tmp/ccz29QVo.s 			page 1


   1              		.file	"scheduler.cpp"
   2              		.option pic
   3              		.option norelax
   4              		.text
   5              	.Ltext0:
   6              		.align	2
   8              	_Z41__static_initialization_and_destruction_0ii:
   9              	.LFB20:
  10              		.file 1 "src/scheduler.cpp"
   1:src/scheduler.cpp **** //
   2:src/scheduler.cpp **** // Created by os on 5/21/24.
   3:src/scheduler.cpp **** //
   4:src/scheduler.cpp **** 
   5:src/scheduler.cpp **** #include "../h/scheduler.hpp"
   6:src/scheduler.cpp **** 
   7:src/scheduler.cpp **** List<TCB> Scheduler::readyThreadQueue;
   8:src/scheduler.cpp **** 
   9:src/scheduler.cpp **** TCB *Scheduler::get()
  10:src/scheduler.cpp **** {
  11:src/scheduler.cpp ****     return readyThreadQueue.removeFirst();
  12:src/scheduler.cpp **** }
  13:src/scheduler.cpp **** 
  14:src/scheduler.cpp **** void Scheduler::put(TCB *ccb)
  15:src/scheduler.cpp **** {
  16:src/scheduler.cpp ****     readyThreadQueue.addLast(ccb);
  17:src/scheduler.cpp **** }
  11              		.loc 1 17 1
  12              		.cfi_startproc
  13              	.LVL0:
  14 0000 93071000 		li	a5,1
  15 0004 630CF500 		beq	a0,a5,.L14
  16              	.L2:
   7:src/scheduler.cpp **** 
  17              		.loc 1 7 11 is_stmt 0
  18 0008 63180500 		bnez	a0,.L9
   7:src/scheduler.cpp **** 
  19              		.loc 1 7 11 discriminator 1
  20 000c B7070100 		li	a5,65536
  21 0010 9387F7FF 		addi	a5,a5,-1
  22 0014 6388F506 		beq	a1,a5,.L10
  23              	.LVL1:
  24              	.L9:
  25 0018 67800000 		ret
  26              	.LVL2:
  27              	.L14:
  28              		.loc 1 17 1 discriminator 1
  29 001c B7070100 		li	a5,65536
  30 0020 9387F7FF 		addi	a5,a5,-1
  31 0024 E392F5FE 		bne	a1,a5,.L2
  32              	.LVL3:
  33              	.LBB33:
  34              	.LBB34:
  35              	.LBB35:
  36              		.file 2 "src/../h/list.hpp"
   1:src/../h/list.hpp **** #ifndef PROJECT_BASE_LIST_HPP
   2:src/../h/list.hpp **** #define PROJECT_BASE_LIST_HPP
   3:src/../h/list.hpp **** 
GAS LISTING /tmp/ccz29QVo.s 			page 2


   4:src/../h/list.hpp **** 
   5:src/../h/list.hpp **** 
   6:src/../h/list.hpp **** template<typename T>
   7:src/../h/list.hpp **** class List
   8:src/../h/list.hpp **** {
   9:src/../h/list.hpp **** private:
  10:src/../h/list.hpp ****     struct Elem
  11:src/../h/list.hpp ****     {
  12:src/../h/list.hpp ****         T *data;
  13:src/../h/list.hpp ****         Elem *next;
  14:src/../h/list.hpp **** 
  15:src/../h/list.hpp ****         Elem(T *data, Elem *next= 0) : data(data), next(next) {}
  16:src/../h/list.hpp ****     };
  17:src/../h/list.hpp **** 
  18:src/../h/list.hpp ****     Elem *head, *tail;
  19:src/../h/list.hpp **** 
  20:src/../h/list.hpp ****     void clear(){
  21:src/../h/list.hpp ****         while(head){
  22:src/../h/list.hpp ****             removeFirst();
  23:src/../h/list.hpp ****         }
  24:src/../h/list.hpp ****     }
  25:src/../h/list.hpp **** 
  26:src/../h/list.hpp **** public:
  27:src/../h/list.hpp ****     List() : head(0), tail(0) {}
  37              		.loc 2 27 29
  38 0028 97070000 		lla	a5,.LANCHOR0
  38      93870700 
  39 0030 23B00700 		sd	zero,0(a5)
  40 0034 23B40700 		sd	zero,8(a5)
  41              	.LBE35:
  42              		.loc 2 27 32
  43 0038 6FF01FFD 		j	.L2
  44              	.LVL4:
  45              	.L15:
  46              		.cfi_def_cfa_register 8
  47              		.cfi_offset 1, -8
  48              		.cfi_offset 8, -16
  49              	.LBE34:
  50              	.LBE33:
  51              	.LBB36:
  52              	.LBB37:
  53              	.LBB38:
  54              	.LBB39:
  55              	.LBB40:
  56              	.LBB41:
  57              	.LBB42:
  28:src/../h/list.hpp **** 
  29:src/../h/list.hpp ****     ~List(){
  30:src/../h/list.hpp ****         clear();
  31:src/../h/list.hpp ****     }
  32:src/../h/list.hpp **** 
  33:src/../h/list.hpp ****     List(const List<T> &) = delete;
  34:src/../h/list.hpp **** 
  35:src/../h/list.hpp ****     List<T> &operator=(const List<T> &) = delete;
  36:src/../h/list.hpp **** 
  37:src/../h/list.hpp ****     void addFirst(T *data)
  38:src/../h/list.hpp ****     {
GAS LISTING /tmp/ccz29QVo.s 			page 3


  39:src/../h/list.hpp ****         Elem *elem = new Elem(data, head);
  40:src/../h/list.hpp ****         head = elem;
  41:src/../h/list.hpp ****         if (!tail) { tail = head; }
  42:src/../h/list.hpp ****     }
  43:src/../h/list.hpp **** 
  44:src/../h/list.hpp ****     void addLast(T *data)
  45:src/../h/list.hpp ****     {
  46:src/../h/list.hpp ****         Elem *elem = new Elem(data, 0);
  47:src/../h/list.hpp ****         if (tail)
  48:src/../h/list.hpp ****         {
  49:src/../h/list.hpp ****             tail->next = elem;
  50:src/../h/list.hpp ****             tail = elem;
  51:src/../h/list.hpp ****         } else
  52:src/../h/list.hpp ****         {
  53:src/../h/list.hpp ****             head = tail = elem;
  54:src/../h/list.hpp ****         }
  55:src/../h/list.hpp ****     }
  56:src/../h/list.hpp **** 
  57:src/../h/list.hpp ****     T *removeFirst()
  58:src/../h/list.hpp ****     {
  59:src/../h/list.hpp ****         if (!head) { return 0; }
  60:src/../h/list.hpp **** 
  61:src/../h/list.hpp ****         Elem *elem = head;
  62:src/../h/list.hpp ****         head = head->next;
  63:src/../h/list.hpp ****         if (!head) { tail = 0; }
  58              		.loc 2 63 22
  59 003c 97070000 		sd	zero,.LANCHOR0+8,a5
  59      23B00700 
  60              	.L6:
  61              	.LVL5:
  64:src/../h/list.hpp **** 
  65:src/../h/list.hpp ****         T *ret = elem->data;
  66:src/../h/list.hpp ****         delete elem;
  62              		.loc 2 66 9
  63 0044 97000000 		call	_ZdlPv@plt
  63      E7800000 
  64              	.LVL6:
  65              	.L7:
  66              	.LBE42:
  67              	.LBE41:
  21:src/../h/list.hpp ****             removeFirst();
  68              		.loc 2 21 9 is_stmt 1
  21:src/../h/list.hpp ****             removeFirst();
  69              		.loc 2 21 15 is_stmt 0
  70 004c 97070000 		ld	a5,.LANCHOR0
  70      83B70700 
  21:src/../h/list.hpp ****             removeFirst();
  71              		.loc 2 21 9
  72 0054 63800702 		beqz	a5,.L1
  73              	.LVL7:
  74              	.LBB45:
  75              	.LBB43:
  59:src/../h/list.hpp **** 
  76              		.loc 2 59 14
  77 0058 13850700 		mv	a0,a5
  59:src/../h/list.hpp **** 
  78              		.loc 2 59 9
GAS LISTING /tmp/ccz29QVo.s 			page 4


  79 005c E38807FE 		beqz	a5,.L7
  80              	.L12:
  81              	.LVL8:
  62:src/../h/list.hpp ****         if (!head) { tail = 0; }
  82              		.loc 2 62 22
  83 0060 83378500 		ld	a5,8(a0)
  62:src/../h/list.hpp ****         if (!head) { tail = 0; }
  84              		.loc 2 62 9
  85 0064 17070000 		sd	a5,.LANCHOR0,a4
  85      2330F700 
  63:src/../h/list.hpp **** 
  86              		.loc 2 63 9
  87 006c E39C07FC 		bnez	a5,.L6
  88 0070 6FF0DFFC 		j	.L15
  89              	.LVL9:
  90              	.L1:
  91              	.LBE43:
  92              	.LBE45:
  93              	.LBE40:
  94              	.LBE39:
  95              	.LBE38:
  96              	.LBE37:
  97              	.LBE36:
  98              		.loc 1 17 1
  99 0074 83308100 		ld	ra,8(sp)
 100              		.cfi_restore 1
 101 0078 03340100 		ld	s0,0(sp)
 102              		.cfi_restore 8
 103              		.cfi_def_cfa 2, 16
 104 007c 13010101 		addi	sp,sp,16
 105              		.cfi_def_cfa_offset 0
 106 0080 67800000 		jr	ra
 107              	.LVL10:
 108              	.L10:
 109              	.LBB51:
 110              	.LBB50:
 111              	.LBB49:
 112              	.LBB48:
 113              	.LBB47:
  21:src/../h/list.hpp ****             removeFirst();
 114              		.loc 2 21 9 is_stmt 1
  21:src/../h/list.hpp ****             removeFirst();
 115              		.loc 2 21 15 is_stmt 0
 116 0084 97070000 		ld	a5,.LANCHOR0
 116      83B70700 
  21:src/../h/list.hpp ****             removeFirst();
 117              		.loc 2 21 9
 118 008c E38607F8 		beqz	a5,.L9
 119              	.LVL11:
 120              	.LBB46:
 121              	.LBB44:
  59:src/../h/list.hpp **** 
 122              		.loc 2 59 14
 123 0090 13850700 		mv	a0,a5
  59:src/../h/list.hpp **** 
 124              		.loc 2 59 9
 125 0094 E38807FE 		beqz	a5,.L10
GAS LISTING /tmp/ccz29QVo.s 			page 5


 126              	.LBE44:
 127              	.LBE46:
 128              	.LBE47:
 129              	.LBE48:
 130              	.LBE49:
 131              	.LBE50:
 132              	.LBE51:
 133              		.loc 1 17 1
 134 0098 130101FF 		addi	sp,sp,-16
 135              		.cfi_def_cfa_offset 16
 136 009c 23341100 		sd	ra,8(sp)
 137 00a0 23308100 		sd	s0,0(sp)
 138              		.cfi_offset 1, -8
 139              		.cfi_offset 8, -16
 140 00a4 13040101 		addi	s0,sp,16
 141              		.cfi_def_cfa 8, 0
 142 00a8 6FF09FFB 		j	.L12
 143              		.cfi_endproc
 144              	.LFE20:
 146              		.align	2
 147              		.globl	_ZN9Scheduler3getEv
 149              	_ZN9Scheduler3getEv:
 150              	.LFB10:
  10:src/scheduler.cpp ****     return readyThreadQueue.removeFirst();
 151              		.loc 1 10 1 is_stmt 1
 152              		.cfi_startproc
  10:src/scheduler.cpp ****     return readyThreadQueue.removeFirst();
 153              		.loc 1 10 1 is_stmt 0
 154 00ac 130101FE 		addi	sp,sp,-32
 155              		.cfi_def_cfa_offset 32
 156 00b0 233C1100 		sd	ra,24(sp)
 157 00b4 23388100 		sd	s0,16(sp)
 158 00b8 23349100 		sd	s1,8(sp)
 159              		.cfi_offset 1, -8
 160              		.cfi_offset 8, -16
 161              		.cfi_offset 9, -24
 162 00bc 13040102 		addi	s0,sp,32
 163              		.cfi_def_cfa 8, 0
  11:src/scheduler.cpp **** }
 164              		.loc 1 11 5 is_stmt 1
 165              	.LVL12:
 166              	.LBB52:
 167              	.LBB53:
  59:src/../h/list.hpp **** 
 168              		.loc 2 59 14 is_stmt 0
 169 00c0 17050000 		ld	a0,.LANCHOR0
 169      03350500 
  59:src/../h/list.hpp **** 
 170              		.loc 2 59 9
 171 00c8 63020504 		beqz	a0,.L19
 172              	.LVL13:
  62:src/../h/list.hpp ****         if (!head) { tail = 0; }
 173              		.loc 2 62 22
 174 00cc 83378500 		ld	a5,8(a0)
  62:src/../h/list.hpp ****         if (!head) { tail = 0; }
 175              		.loc 2 62 9
 176 00d0 17070000 		sd	a5,.LANCHOR0,a4
GAS LISTING /tmp/ccz29QVo.s 			page 6


 176      2330F700 
  63:src/../h/list.hpp **** 
 177              		.loc 2 63 9
 178 00d8 63840702 		beqz	a5,.L21
 179              	.L18:
  65:src/../h/list.hpp ****         delete elem;
 180              		.loc 2 65 12
 181 00dc 83340500 		ld	s1,0(a0)
 182              	.LVL14:
 183              		.loc 2 66 9
 184 00e0 97000000 		call	_ZdlPv@plt
 184      E7800000 
 185              	.LVL15:
 186              	.L16:
 187              	.LBE53:
 188              	.LBE52:
  12:src/scheduler.cpp **** 
 189              		.loc 1 12 1
 190 00e8 13850400 		mv	a0,s1
 191 00ec 83308101 		ld	ra,24(sp)
 192              		.cfi_remember_state
 193              		.cfi_restore 1
 194 00f0 03340101 		ld	s0,16(sp)
 195              		.cfi_restore 8
 196              		.cfi_def_cfa 2, 32
 197 00f4 83348100 		ld	s1,8(sp)
 198              		.cfi_restore 9
 199 00f8 13010102 		addi	sp,sp,32
 200              		.cfi_def_cfa_offset 0
 201 00fc 67800000 		jr	ra
 202              	.LVL16:
 203              	.L21:
 204              		.cfi_restore_state
 205              	.LBB55:
 206              	.LBB54:
  63:src/../h/list.hpp **** 
 207              		.loc 2 63 22
 208 0100 97070000 		sd	zero,.LANCHOR0+8,a5
 208      23B00700 
 209 0108 6FF05FFD 		j	.L18
 210              	.LVL17:
 211              	.L19:
  59:src/../h/list.hpp **** 
 212              		.loc 2 59 29
 213 010c 93040500 		mv	s1,a0
 214              	.LVL18:
 215              	.LBE54:
 216              	.LBE55:
  11:src/scheduler.cpp **** }
 217              		.loc 1 11 41
 218 0110 6FF09FFD 		j	.L16
 219              		.cfi_endproc
 220              	.LFE10:
 222              		.align	2
 223              		.globl	_ZN9Scheduler3putEP3TCB
 225              	_ZN9Scheduler3putEP3TCB:
 226              	.LFB11:
GAS LISTING /tmp/ccz29QVo.s 			page 7


  15:src/scheduler.cpp ****     readyThreadQueue.addLast(ccb);
 227              		.loc 1 15 1 is_stmt 1
 228              		.cfi_startproc
 229              	.LVL19:
 230 0114 130101FE 		addi	sp,sp,-32
 231              		.cfi_def_cfa_offset 32
 232 0118 233C1100 		sd	ra,24(sp)
 233 011c 23388100 		sd	s0,16(sp)
 234 0120 23349100 		sd	s1,8(sp)
 235              		.cfi_offset 1, -8
 236              		.cfi_offset 8, -16
 237              		.cfi_offset 9, -24
 238 0124 13040102 		addi	s0,sp,32
 239              		.cfi_def_cfa 8, 0
 240 0128 93040500 		mv	s1,a0
  16:src/scheduler.cpp **** }
 241              		.loc 1 16 5
 242              	.LVL20:
 243              	.LBB56:
 244              	.LBB57:
  46:src/../h/list.hpp ****         if (tail)
 245              		.loc 2 46 22 is_stmt 0
 246 012c 13050001 		li	a0,16
 247              	.LVL21:
 248 0130 97000000 		call	_Znwm@plt
 248      E7800000 
 249              	.LVL22:
 250              	.LBB58:
 251              	.LBB59:
  15:src/../h/list.hpp ****     };
 252              		.loc 2 15 61
 253 0138 23309500 		sd	s1,0(a0)
 254 013c 23340500 		sd	zero,8(a0)
 255              	.LVL23:
 256              	.LBE59:
 257              	.LBE58:
  47:src/../h/list.hpp ****         {
 258              		.loc 2 47 13
 259 0140 97070000 		ld	a5,.LANCHOR0+8
 259      83B70700 
  47:src/../h/list.hpp ****         {
 260              		.loc 2 47 9
 261 0148 63820702 		beqz	a5,.L23
  49:src/../h/list.hpp ****             tail = elem;
 262              		.loc 2 49 13
 263 014c 23B4A700 		sd	a0,8(a5)
  50:src/../h/list.hpp ****         } else
 264              		.loc 2 50 13
 265 0150 97070000 		sd	a0,.LANCHOR0+8,a5
 265      23B0A700 
 266              	.LVL24:
 267              	.L22:
 268              	.LBE57:
 269              	.LBE56:
 270              		.loc 1 17 1
 271 0158 83308101 		ld	ra,24(sp)
 272              		.cfi_remember_state
GAS LISTING /tmp/ccz29QVo.s 			page 8


 273              		.cfi_restore 1
 274 015c 03340101 		ld	s0,16(sp)
 275              		.cfi_restore 8
 276              		.cfi_def_cfa 2, 32
 277 0160 83348100 		ld	s1,8(sp)
 278              		.cfi_restore 9
 279              	.LVL25:
 280 0164 13010102 		addi	sp,sp,32
 281              		.cfi_def_cfa_offset 0
 282 0168 67800000 		jr	ra
 283              	.LVL26:
 284              	.L23:
 285              		.cfi_restore_state
 286              	.LBB61:
 287              	.LBB60:
  53:src/../h/list.hpp ****         }
 288              		.loc 2 53 13
 289 016c 97070000 		lla	a5,.LANCHOR0
 289      93870700 
 290 0174 23B4A700 		sd	a0,8(a5)
 291 0178 23B0A700 		sd	a0,0(a5)
 292              	.LVL27:
 293              	.LBE60:
 294              	.LBE61:
 295              		.loc 1 17 1
 296 017c 6FF0DFFD 		j	.L22
 297              		.cfi_endproc
 298              	.LFE11:
 300              		.align	2
 302              	_GLOBAL__sub_I__ZN9Scheduler16readyThreadQueueE:
 303              	.LFB25:
 304              		.loc 1 17 1 is_stmt 1
 305              		.cfi_startproc
 306 0180 130101FF 		addi	sp,sp,-16
 307              		.cfi_def_cfa_offset 16
 308 0184 23341100 		sd	ra,8(sp)
 309 0188 23308100 		sd	s0,0(sp)
 310              		.cfi_offset 1, -8
 311              		.cfi_offset 8, -16
 312 018c 13040101 		addi	s0,sp,16
 313              		.cfi_def_cfa 8, 0
 314              		.loc 1 17 1 is_stmt 0
 315 0190 B7050100 		li	a1,65536
 316 0194 9385F5FF 		addi	a1,a1,-1
 317 0198 13051000 		li	a0,1
 318 019c 97000000 		call	_Z41__static_initialization_and_destruction_0ii
 318      E7800000 
 319              	.LVL28:
 320 01a4 83308100 		ld	ra,8(sp)
 321              		.cfi_restore 1
 322 01a8 03340100 		ld	s0,0(sp)
 323              		.cfi_restore 8
 324              		.cfi_def_cfa 2, 16
 325 01ac 13010101 		addi	sp,sp,16
 326              		.cfi_def_cfa_offset 0
 327 01b0 67800000 		jr	ra
 328              		.cfi_endproc
GAS LISTING /tmp/ccz29QVo.s 			page 9


 329              	.LFE25:
 331              		.section	.init_array,"aw"
 332              		.align	3
 333 0000 00000000 		.dword	_GLOBAL__sub_I__ZN9Scheduler16readyThreadQueueE
 333      00000000 
 334              		.text
 335              		.align	2
 337              	_GLOBAL__sub_D__ZN9Scheduler16readyThreadQueueE:
 338              	.LFB26:
 339              		.loc 1 17 1 is_stmt 1
 340              		.cfi_startproc
 341 01b4 130101FF 		addi	sp,sp,-16
 342              		.cfi_def_cfa_offset 16
 343 01b8 23341100 		sd	ra,8(sp)
 344 01bc 23308100 		sd	s0,0(sp)
 345              		.cfi_offset 1, -8
 346              		.cfi_offset 8, -16
 347 01c0 13040101 		addi	s0,sp,16
 348              		.cfi_def_cfa 8, 0
 349              		.loc 1 17 1 is_stmt 0
 350 01c4 B7050100 		li	a1,65536
 351 01c8 9385F5FF 		addi	a1,a1,-1
 352 01cc 13050000 		li	a0,0
 353 01d0 97000000 		call	_Z41__static_initialization_and_destruction_0ii
 353      E7800000 
 354              	.LVL29:
 355 01d8 83308100 		ld	ra,8(sp)
 356              		.cfi_restore 1
 357 01dc 03340100 		ld	s0,0(sp)
 358              		.cfi_restore 8
 359              		.cfi_def_cfa 2, 16
 360 01e0 13010101 		addi	sp,sp,16
 361              		.cfi_def_cfa_offset 0
 362 01e4 67800000 		jr	ra
 363              		.cfi_endproc
 364              	.LFE26:
 366              		.section	.fini_array,"aw"
 367              		.align	3
 368 0000 00000000 		.dword	_GLOBAL__sub_D__ZN9Scheduler16readyThreadQueueE
 368      00000000 
 369              		.globl	_ZN9Scheduler16readyThreadQueueE
 370              		.bss
 371              		.align	3
 372              		.set	.LANCHOR0,. + 0
 375              	_ZN9Scheduler16readyThreadQueueE:
 376 0000 00000000 		.zero	16
 376      00000000 
 376      00000000 
 376      00000000 
 377              		.text
 378              	.Letext0:
 379              		.file 3 "src/../h/scheduler.hpp"
GAS LISTING /tmp/ccz29QVo.s 			page 10


DEFINED SYMBOLS
                            *ABS*:0000000000000000 scheduler.cpp
     /tmp/ccz29QVo.s:8      .text:0000000000000000 _Z41__static_initialization_and_destruction_0ii
     /tmp/ccz29QVo.s:12     .text:0000000000000000 .L0 
     /tmp/ccz29QVo.s:14     .text:0000000000000000 .L0 
     /tmp/ccz29QVo.s:18     .text:0000000000000008 .L0 
     /tmp/ccz29QVo.s:20     .text:000000000000000c .L0 
     /tmp/ccz29QVo.s:29     .text:000000000000001c .L0 
     /tmp/ccz29QVo.s:38     .text:0000000000000028 .L0 
     /tmp/ccz29QVo.s:43     .text:0000000000000038 .L0 
     /tmp/ccz29QVo.s:46     .text:000000000000003c .L0 
     /tmp/ccz29QVo.s:47     .text:000000000000003c .L0 
     /tmp/ccz29QVo.s:48     .text:000000000000003c .L0 
     /tmp/ccz29QVo.s:59     .text:000000000000003c .L0 
     /tmp/ccz29QVo.s:63     .text:0000000000000044 .L0 
     /tmp/ccz29QVo.s:69     .text:000000000000004c .L0 
     /tmp/ccz29QVo.s:70     .text:000000000000004c .L0 
     /tmp/ccz29QVo.s:72     .text:0000000000000054 .L0 
     /tmp/ccz29QVo.s:77     .text:0000000000000058 .L0 
     /tmp/ccz29QVo.s:79     .text:000000000000005c .L0 
     /tmp/ccz29QVo.s:83     .text:0000000000000060 .L0 
     /tmp/ccz29QVo.s:85     .text:0000000000000064 .L0 
     /tmp/ccz29QVo.s:87     .text:000000000000006c .L0 
     /tmp/ccz29QVo.s:99     .text:0000000000000074 .L0 
     /tmp/ccz29QVo.s:100    .text:0000000000000078 .L0 
     /tmp/ccz29QVo.s:102    .text:000000000000007c .L0 
     /tmp/ccz29QVo.s:103    .text:000000000000007c .L0 
     /tmp/ccz29QVo.s:105    .text:0000000000000080 .L0 
     /tmp/ccz29QVo.s:115    .text:0000000000000084 .L0 
     /tmp/ccz29QVo.s:116    .text:0000000000000084 .L0 
     /tmp/ccz29QVo.s:118    .text:000000000000008c .L0 
     /tmp/ccz29QVo.s:123    .text:0000000000000090 .L0 
     /tmp/ccz29QVo.s:125    .text:0000000000000094 .L0 
     /tmp/ccz29QVo.s:134    .text:0000000000000098 .L0 
     /tmp/ccz29QVo.s:135    .text:000000000000009c .L0 
     /tmp/ccz29QVo.s:138    .text:00000000000000a4 .L0 
     /tmp/ccz29QVo.s:139    .text:00000000000000a4 .L0 
     /tmp/ccz29QVo.s:141    .text:00000000000000a8 .L0 
     /tmp/ccz29QVo.s:143    .text:00000000000000ac .L0 
     /tmp/ccz29QVo.s:149    .text:00000000000000ac _ZN9Scheduler3getEv
     /tmp/ccz29QVo.s:152    .text:00000000000000ac .L0 
     /tmp/ccz29QVo.s:153    .text:00000000000000ac .L0 
     /tmp/ccz29QVo.s:154    .text:00000000000000ac .L0 
     /tmp/ccz29QVo.s:155    .text:00000000000000b0 .L0 
     /tmp/ccz29QVo.s:159    .text:00000000000000bc .L0 
     /tmp/ccz29QVo.s:160    .text:00000000000000bc .L0 
     /tmp/ccz29QVo.s:161    .text:00000000000000bc .L0 
     /tmp/ccz29QVo.s:163    .text:00000000000000c0 .L0 
     /tmp/ccz29QVo.s:168    .text:00000000000000c0 .L0 
     /tmp/ccz29QVo.s:169    .text:00000000000000c0 .L0 
     /tmp/ccz29QVo.s:171    .text:00000000000000c8 .L0 
     /tmp/ccz29QVo.s:174    .text:00000000000000cc .L0 
     /tmp/ccz29QVo.s:176    .text:00000000000000d0 .L0 
     /tmp/ccz29QVo.s:178    .text:00000000000000d8 .L0 
     /tmp/ccz29QVo.s:181    .text:00000000000000dc .L0 
     /tmp/ccz29QVo.s:184    .text:00000000000000e0 .L0 
     /tmp/ccz29QVo.s:190    .text:00000000000000e8 .L0 
GAS LISTING /tmp/ccz29QVo.s 			page 11


     /tmp/ccz29QVo.s:192    .text:00000000000000f0 .L0 
     /tmp/ccz29QVo.s:193    .text:00000000000000f0 .L0 
     /tmp/ccz29QVo.s:195    .text:00000000000000f4 .L0 
     /tmp/ccz29QVo.s:196    .text:00000000000000f4 .L0 
     /tmp/ccz29QVo.s:198    .text:00000000000000f8 .L0 
     /tmp/ccz29QVo.s:200    .text:00000000000000fc .L0 
     /tmp/ccz29QVo.s:204    .text:0000000000000100 .L0 
     /tmp/ccz29QVo.s:208    .text:0000000000000100 .L0 
     /tmp/ccz29QVo.s:213    .text:000000000000010c .L0 
     /tmp/ccz29QVo.s:218    .text:0000000000000110 .L0 
     /tmp/ccz29QVo.s:219    .text:0000000000000114 .L0 
     /tmp/ccz29QVo.s:225    .text:0000000000000114 _ZN9Scheduler3putEP3TCB
     /tmp/ccz29QVo.s:228    .text:0000000000000114 .L0 
     /tmp/ccz29QVo.s:230    .text:0000000000000114 .L0 
     /tmp/ccz29QVo.s:231    .text:0000000000000118 .L0 
     /tmp/ccz29QVo.s:235    .text:0000000000000124 .L0 
     /tmp/ccz29QVo.s:236    .text:0000000000000124 .L0 
     /tmp/ccz29QVo.s:237    .text:0000000000000124 .L0 
     /tmp/ccz29QVo.s:239    .text:0000000000000128 .L0 
     /tmp/ccz29QVo.s:245    .text:000000000000012c .L0 
     /tmp/ccz29QVo.s:246    .text:000000000000012c .L0 
     /tmp/ccz29QVo.s:253    .text:0000000000000138 .L0 
     /tmp/ccz29QVo.s:259    .text:0000000000000140 .L0 
     /tmp/ccz29QVo.s:261    .text:0000000000000148 .L0 
     /tmp/ccz29QVo.s:263    .text:000000000000014c .L0 
     /tmp/ccz29QVo.s:265    .text:0000000000000150 .L0 
     /tmp/ccz29QVo.s:271    .text:0000000000000158 .L0 
     /tmp/ccz29QVo.s:272    .text:000000000000015c .L0 
     /tmp/ccz29QVo.s:273    .text:000000000000015c .L0 
     /tmp/ccz29QVo.s:275    .text:0000000000000160 .L0 
     /tmp/ccz29QVo.s:276    .text:0000000000000160 .L0 
     /tmp/ccz29QVo.s:278    .text:0000000000000164 .L0 
     /tmp/ccz29QVo.s:281    .text:0000000000000168 .L0 
     /tmp/ccz29QVo.s:285    .text:000000000000016c .L0 
     /tmp/ccz29QVo.s:289    .text:000000000000016c .L0 
     /tmp/ccz29QVo.s:296    .text:000000000000017c .L0 
     /tmp/ccz29QVo.s:297    .text:0000000000000180 .L0 
     /tmp/ccz29QVo.s:302    .text:0000000000000180 _GLOBAL__sub_I__ZN9Scheduler16readyThreadQueueE
     /tmp/ccz29QVo.s:305    .text:0000000000000180 .L0 
     /tmp/ccz29QVo.s:306    .text:0000000000000180 .L0 
     /tmp/ccz29QVo.s:307    .text:0000000000000184 .L0 
     /tmp/ccz29QVo.s:310    .text:000000000000018c .L0 
     /tmp/ccz29QVo.s:311    .text:000000000000018c .L0 
     /tmp/ccz29QVo.s:313    .text:0000000000000190 .L0 
     /tmp/ccz29QVo.s:315    .text:0000000000000190 .L0 
     /tmp/ccz29QVo.s:321    .text:00000000000001a8 .L0 
     /tmp/ccz29QVo.s:323    .text:00000000000001ac .L0 
     /tmp/ccz29QVo.s:324    .text:00000000000001ac .L0 
     /tmp/ccz29QVo.s:326    .text:00000000000001b0 .L0 
     /tmp/ccz29QVo.s:328    .text:00000000000001b4 .L0 
     /tmp/ccz29QVo.s:337    .text:00000000000001b4 _GLOBAL__sub_D__ZN9Scheduler16readyThreadQueueE
     /tmp/ccz29QVo.s:340    .text:00000000000001b4 .L0 
     /tmp/ccz29QVo.s:341    .text:00000000000001b4 .L0 
     /tmp/ccz29QVo.s:342    .text:00000000000001b8 .L0 
     /tmp/ccz29QVo.s:345    .text:00000000000001c0 .L0 
     /tmp/ccz29QVo.s:346    .text:00000000000001c0 .L0 
     /tmp/ccz29QVo.s:348    .text:00000000000001c4 .L0 
GAS LISTING /tmp/ccz29QVo.s 			page 12


     /tmp/ccz29QVo.s:350    .text:00000000000001c4 .L0 
     /tmp/ccz29QVo.s:356    .text:00000000000001dc .L0 
     /tmp/ccz29QVo.s:358    .text:00000000000001e0 .L0 
     /tmp/ccz29QVo.s:359    .text:00000000000001e0 .L0 
     /tmp/ccz29QVo.s:361    .text:00000000000001e4 .L0 
     /tmp/ccz29QVo.s:363    .text:00000000000001e8 .L0 
     /tmp/ccz29QVo.s:375    .bss:0000000000000000 _ZN9Scheduler16readyThreadQueueE
     /tmp/ccz29QVo.s:372    .bss:0000000000000000 .LANCHOR0
     /tmp/ccz29QVo.s:380    .text:00000000000001e8 .L0 
     /tmp/ccz29QVo.s:38     .text:0000000000000028 .L0 
     /tmp/ccz29QVo.s:59     .text:000000000000003c .L0 
     /tmp/ccz29QVo.s:70     .text:000000000000004c .L0 
     /tmp/ccz29QVo.s:85     .text:0000000000000064 .L0 
     /tmp/ccz29QVo.s:116    .text:0000000000000084 .L0 
     /tmp/ccz29QVo.s:169    .text:00000000000000c0 .L0 
     /tmp/ccz29QVo.s:176    .text:00000000000000d0 .L0 
     /tmp/ccz29QVo.s:208    .text:0000000000000100 .L0 
     /tmp/ccz29QVo.s:259    .text:0000000000000140 .L0 
     /tmp/ccz29QVo.s:265    .text:0000000000000150 .L0 
     /tmp/ccz29QVo.s:289    .text:000000000000016c .L0 
     /tmp/ccz29QVo.s:27     .text:000000000000001c .L14
     /tmp/ccz29QVo.s:24     .text:0000000000000018 .L9
     /tmp/ccz29QVo.s:108    .text:0000000000000084 .L10
     /tmp/ccz29QVo.s:16     .text:0000000000000008 .L2
     /tmp/ccz29QVo.s:90     .text:0000000000000074 .L1
     /tmp/ccz29QVo.s:65     .text:000000000000004c .L7
     /tmp/ccz29QVo.s:60     .text:0000000000000044 .L6
     /tmp/ccz29QVo.s:45     .text:000000000000003c .L15
     /tmp/ccz29QVo.s:80     .text:0000000000000060 .L12
     /tmp/ccz29QVo.s:211    .text:000000000000010c .L19
     /tmp/ccz29QVo.s:203    .text:0000000000000100 .L21
     /tmp/ccz29QVo.s:179    .text:00000000000000dc .L18
     /tmp/ccz29QVo.s:186    .text:00000000000000e8 .L16
     /tmp/ccz29QVo.s:284    .text:000000000000016c .L23
     /tmp/ccz29QVo.s:267    .text:0000000000000158 .L22
     /tmp/ccz29QVo.s:1024   .debug_abbrev:0000000000000000 .Ldebug_abbrev0
     /tmp/ccz29QVo.s:1945   .debug_str:00000000000000a4 .LASF39
     /tmp/ccz29QVo.s:1961   .debug_str:00000000000001ec .LASF40
     /tmp/ccz29QVo.s:1997   .debug_str:0000000000000308 .LASF41
     /tmp/ccz29QVo.s:5      .text:0000000000000000 .Ltext0
     /tmp/ccz29QVo.s:378    .text:00000000000001e8 .Letext0
     /tmp/ccz29QVo.s:1923   .debug_line:0000000000000000 .Ldebug_line0
     /tmp/ccz29QVo.s:1949   .debug_str:0000000000000193 .LASF0
     /tmp/ccz29QVo.s:1987   .debug_str:00000000000002d0 .LASF42
     /tmp/ccz29QVo.s:1931   .debug_str:0000000000000016 .LASF43
     /tmp/ccz29QVo.s:1941   .debug_str:0000000000000081 .LASF44
     /tmp/ccz29QVo.s:2013   .debug_str:00000000000003a7 .LASF1
     /tmp/ccz29QVo.s:1993   .debug_str:00000000000002fd .LASF4
     /tmp/ccz29QVo.s:1953   .debug_str:00000000000001bb .LASF2
     /tmp/ccz29QVo.s:1927   .debug_str:000000000000000b .LASF3
     /tmp/ccz29QVo.s:2015   .debug_str:00000000000003b1 .LASF45
     /tmp/ccz29QVo.s:1973   .debug_str:0000000000000261 .LASF5
     /tmp/ccz29QVo.s:2011   .debug_str:00000000000003a2 .LASF6
     /tmp/ccz29QVo.s:1929   .debug_str:0000000000000010 .LASF46
     /tmp/ccz29QVo.s:1965   .debug_str:0000000000000211 .LASF47
     /tmp/ccz29QVo.s:1979   .debug_str:000000000000029f .LASF7
     /tmp/ccz29QVo.s:1937   .debug_str:0000000000000062 .LASF9
GAS LISTING /tmp/ccz29QVo.s 			page 13


     /tmp/ccz29QVo.s:1995   .debug_str:0000000000000302 .LASF8
     /tmp/ccz29QVo.s:1963   .debug_str:00000000000001fe .LASF10
     /tmp/ccz29QVo.s:1947   .debug_str:000000000000017c .LASF16
     /tmp/ccz29QVo.s:2019   .debug_str:00000000000003ec .LASF48
     /tmp/ccz29QVo.s:1999   .debug_str:0000000000000326 .LASF49
     /tmp/ccz29QVo.s:1977   .debug_str:0000000000000296 .LASF11
     /tmp/ccz29QVo.s:2025   .debug_str:0000000000000426 .LASF12
     /tmp/ccz29QVo.s:1933   .debug_str:000000000000002a .LASF13
     /tmp/ccz29QVo.s:2017   .debug_str:00000000000003d0 .LASF14
     /tmp/ccz29QVo.s:1939   .debug_str:0000000000000075 .LASF15
     /tmp/ccz29QVo.s:1951   .debug_str:000000000000019d .LASF17
     /tmp/ccz29QVo.s:1955   .debug_str:00000000000001c0 .LASF18
     /tmp/ccz29QVo.s:2007   .debug_str:000000000000037d .LASF19
     /tmp/ccz29QVo.s:1943   .debug_str:0000000000000099 .LASF20
     /tmp/ccz29QVo.s:1959   .debug_str:00000000000001cf .LASF21
     /tmp/ccz29QVo.s:1989   .debug_str:00000000000002e1 .LASF22
     /tmp/ccz29QVo.s:2001   .debug_str:000000000000033d .LASF23
     /tmp/ccz29QVo.s:1969   .debug_str:000000000000023b .LASF50
     /tmp/ccz29QVo.s:1975   .debug_str:0000000000000266 .LASF24
     /tmp/ccz29QVo.s:338    .text:00000000000001b4 .LFB26
     /tmp/ccz29QVo.s:364    .text:00000000000001e8 .LFE26
     /tmp/ccz29QVo.s:354    .text:00000000000001d8 .LVL29
     /tmp/ccz29QVo.s:1935   .debug_str:0000000000000032 .LASF25
     /tmp/ccz29QVo.s:303    .text:0000000000000180 .LFB25
     /tmp/ccz29QVo.s:329    .text:00000000000001b4 .LFE25
     /tmp/ccz29QVo.s:319    .text:00000000000001a4 .LVL28
     /tmp/ccz29QVo.s:1957   .debug_str:00000000000001ca .LASF26
     /tmp/ccz29QVo.s:2009   .debug_str:0000000000000398 .LASF27
     /tmp/ccz29QVo.s:1991   .debug_str:00000000000002ea .LASF31
     /tmp/ccz29QVo.s:2023   .debug_str:00000000000003fc .LASF28
     /tmp/ccz29QVo.s:9      .text:0000000000000000 .LFB20
     /tmp/ccz29QVo.s:144    .text:00000000000000ac .LFE20
     /tmp/ccz29QVo.s:1983   .debug_str:00000000000002b4 .LASF29
     /tmp/ccz29QVo.s:1677   .debug_loc:0000000000000000 .LLST0
     /tmp/ccz29QVo.s:1925   .debug_str:0000000000000000 .LASF30
     /tmp/ccz29QVo.s:1702   .debug_loc:0000000000000062 .LLST1
     /tmp/ccz29QVo.s:33     .text:0000000000000028 .LBB33
     /tmp/ccz29QVo.s:50     .text:000000000000003c .LBE33
     /tmp/ccz29QVo.s:1720   .debug_loc:00000000000000ae .LLST2
     /tmp/ccz29QVo.s:51     .text:000000000000003c .LBB36
     /tmp/ccz29QVo.s:1889   .debug_ranges:0000000000000000 .Ldebug_ranges0
     /tmp/ccz29QVo.s:54     .text:000000000000003c .LBB39
     /tmp/ccz29QVo.s:56     .text:000000000000003c .LBB41
     /tmp/ccz29QVo.s:1729   .debug_loc:00000000000000da .LLST3
     /tmp/ccz29QVo.s:1750   .debug_loc:000000000000013e .LLST4
     /tmp/ccz29QVo.s:1761   .debug_loc:0000000000000174 .LLST5
     /tmp/ccz29QVo.s:64     .text:000000000000004c .LVL6
     /tmp/ccz29QVo.s:2005   .debug_str:000000000000035e .LASF32
     /tmp/ccz29QVo.s:1971   .debug_str:000000000000025c .LASF33
     /tmp/ccz29QVo.s:1967   .debug_str:0000000000000228 .LASF34
     /tmp/ccz29QVo.s:226    .text:0000000000000114 .LFB11
     /tmp/ccz29QVo.s:298    .text:0000000000000180 .LFE11
     /tmp/ccz29QVo.s:1769   .debug_loc:0000000000000198 .LLST9
     /tmp/ccz29QVo.s:243    .text:000000000000012c .LBB56
     /tmp/ccz29QVo.s:1791   .debug_loc:00000000000001f7 .LLST10
     /tmp/ccz29QVo.s:1806   .debug_loc:0000000000000240 .LLST11
     /tmp/ccz29QVo.s:250    .text:0000000000000138 .LBB58
GAS LISTING /tmp/ccz29QVo.s 			page 14


     /tmp/ccz29QVo.s:257    .text:0000000000000140 .LBE58
     /tmp/ccz29QVo.s:1821   .debug_loc:0000000000000288 .LLST12
     /tmp/ccz29QVo.s:1829   .debug_loc:00000000000002ac .LLST13
     /tmp/ccz29QVo.s:1836   .debug_loc:00000000000002cf .LLST14
     /tmp/ccz29QVo.s:249    .text:0000000000000138 .LVL22
     /tmp/ccz29QVo.s:150    .text:00000000000000ac .LFB10
     /tmp/ccz29QVo.s:220    .text:0000000000000114 .LFE10
     /tmp/ccz29QVo.s:166    .text:00000000000000c0 .LBB52
     /tmp/ccz29QVo.s:1843   .debug_loc:00000000000002f2 .LLST6
     /tmp/ccz29QVo.s:1858   .debug_loc:000000000000033a .LLST7
     /tmp/ccz29QVo.s:1869   .debug_loc:0000000000000370 .LLST8
     /tmp/ccz29QVo.s:185    .text:00000000000000e8 .LVL15
     /tmp/ccz29QVo.s:2003   .debug_str:0000000000000357 .LASF35
     /tmp/ccz29QVo.s:1981   .debug_str:00000000000002a4 .LASF37
     /tmp/ccz29QVo.s:2021   .debug_str:00000000000003f6 .LASF36
     /tmp/ccz29QVo.s:1985   .debug_str:00000000000002c3 .LASF38
     /tmp/ccz29QVo.s:13     .text:0000000000000000 .LVL0
     /tmp/ccz29QVo.s:23     .text:0000000000000018 .LVL1
     /tmp/ccz29QVo.s:26     .text:000000000000001c .LVL2
     /tmp/ccz29QVo.s:44     .text:000000000000003c .LVL4
     /tmp/ccz29QVo.s:107    .text:0000000000000084 .LVL10
     /tmp/ccz29QVo.s:32     .text:0000000000000028 .LVL3
     /tmp/ccz29QVo.s:73     .text:0000000000000058 .LVL7
     /tmp/ccz29QVo.s:89     .text:0000000000000074 .LVL9
     /tmp/ccz29QVo.s:119    .text:0000000000000090 .LVL11
     /tmp/ccz29QVo.s:81     .text:0000000000000060 .LVL8
     /tmp/ccz29QVo.s:61     .text:0000000000000044 .LVL5
     /tmp/ccz29QVo.s:229    .text:0000000000000114 .LVL19
     /tmp/ccz29QVo.s:247    .text:0000000000000130 .LVL21
     /tmp/ccz29QVo.s:279    .text:0000000000000164 .LVL25
     /tmp/ccz29QVo.s:283    .text:000000000000016c .LVL26
     /tmp/ccz29QVo.s:242    .text:000000000000012c .LVL20
     /tmp/ccz29QVo.s:266    .text:0000000000000158 .LVL24
     /tmp/ccz29QVo.s:292    .text:000000000000017c .LVL27
     /tmp/ccz29QVo.s:255    .text:0000000000000140 .LVL23
     /tmp/ccz29QVo.s:165    .text:00000000000000c0 .LVL12
     /tmp/ccz29QVo.s:202    .text:0000000000000100 .LVL16
     /tmp/ccz29QVo.s:214    .text:0000000000000110 .LVL18
     /tmp/ccz29QVo.s:172    .text:00000000000000cc .LVL13
     /tmp/ccz29QVo.s:210    .text:000000000000010c .LVL17
     /tmp/ccz29QVo.s:182    .text:00000000000000e0 .LVL14
     /tmp/ccz29QVo.s:381    .debug_info:0000000000000000 .Ldebug_info0
     /tmp/ccz29QVo.s:97     .text:0000000000000074 .LBE36
     /tmp/ccz29QVo.s:109    .text:0000000000000084 .LBB51
     /tmp/ccz29QVo.s:132    .text:0000000000000098 .LBE51
     /tmp/ccz29QVo.s:94     .text:0000000000000074 .LBE39
     /tmp/ccz29QVo.s:112    .text:0000000000000084 .LBB48
     /tmp/ccz29QVo.s:129    .text:0000000000000098 .LBE48
     /tmp/ccz29QVo.s:67     .text:000000000000004c .LBE41
     /tmp/ccz29QVo.s:74     .text:0000000000000058 .LBB45
     /tmp/ccz29QVo.s:92     .text:0000000000000074 .LBE45
     /tmp/ccz29QVo.s:120    .text:0000000000000090 .LBB46
     /tmp/ccz29QVo.s:127    .text:0000000000000098 .LBE46
     /tmp/ccz29QVo.s:188    .text:00000000000000e8 .LBE52
     /tmp/ccz29QVo.s:205    .text:0000000000000100 .LBB55
     /tmp/ccz29QVo.s:216    .text:0000000000000110 .LBE55
     /tmp/ccz29QVo.s:269    .text:0000000000000158 .LBE56
GAS LISTING /tmp/ccz29QVo.s 			page 15


     /tmp/ccz29QVo.s:286    .text:000000000000016c .LBB61
     /tmp/ccz29QVo.s:294    .text:000000000000017c .LBE61

UNDEFINED SYMBOLS
_ZdlPv
_Znwm
